Component: ARM Compiler 5.06 update 3 (build 300) Tool: armlink [4d35c9]

==============================================================================

Section Cross References

    main.o(i._Z10imuUpdaterPv) refers to main.o(i._Z9configI2Cv) for configI2C()
    main.o(i._Z10imuUpdaterPv) refers to main.o(i._Z9configPWMv) for configPWM()
    main.o(i._Z10imuUpdaterPv) refers to rtx_delay.o(i.osDelay) for osDelay
    main.o(i._Z10imuUpdaterPv) refers to rtx_semaphore.o(i.osSemaphoreAcquire) for osSemaphoreAcquire
    main.o(i._Z10imuUpdaterPv) refers to i2c_lpc17xx.o(.constdata) for Driver_I2C1
    main.o(i._Z10imuUpdaterPv) refers to main.o(.constdata) for EULERANGLE
    main.o(i._Z10imuUpdaterPv) refers to main.o(.data) for semaphoreTransmitId
    main.o(i._Z12I2C_callbackj) refers to rtx_semaphore.o(i.osSemaphoreRelease) for osSemaphoreRelease
    main.o(i._Z12I2C_callbackj) refers to i2c_lpc17xx.o(.constdata) for Driver_I2C1
    main.o(i._Z12I2C_callbackj) refers to main.o(.data) for semaphoreTransmitId
    main.o(i._Z13computeEnginePv) refers to rtx_semaphore.o(i.osSemaphoreAcquire) for osSemaphoreAcquire
    main.o(i._Z13computeEnginePv) refers to fflti.o(.text) for __aeabi_i2f
    main.o(i._Z13computeEnginePv) refers to fadd.o(.text) for __aeabi_fsub
    main.o(i._Z13computeEnginePv) refers to fdiv.o(.text) for __aeabi_fdiv
    main.o(i._Z13computeEnginePv) refers to fmul.o(.text) for __aeabi_fmul
    main.o(i._Z13computeEnginePv) refers to ffixui.o(.text) for __aeabi_f2uiz
    main.o(i._Z13computeEnginePv) refers to rtx_delay.o(i.osDelay) for osDelay
    main.o(i._Z13computeEnginePv) refers to main.o(.data) for throttle
    main.o(i._Z13ledInitializev) refers to gpio_lpc17xx.o(i.GPIO_SetDir) for GPIO_SetDir
    main.o(i._Z14i2c1Initializev) refers to i2c_lpc17xx.o(.constdata) for Driver_I2C1
    main.o(i._Z14i2c1Initializev) refers to main.o(i._Z12I2C_callbackj) for I2C_callback(unsigned)
    main.o(i._Z15heartBeatThreadPv) refers to gpio_lpc17xx.o(i.GPIO_PinWrite) for GPIO_PinWrite
    main.o(i._Z15heartBeatThreadPv) refers to rtx_delay.o(i.osDelay) for osDelay
    main.o(i._Z15uart0Initializev) refers to main.o(i._Z16__NVIC_EnableIRQ4IRQn) for __NVIC_EnableIRQ(IRQn)
    main.o(i._Z15uart0Initializev) refers to uart_lpc17xx.o(.constdata) for Driver_USART0
    main.o(i._Z15uart0Initializev) refers to main.o(i._Z14USART_callbackj) for USART_callback(unsigned)
    main.o(i._Z15uart1Initializev) refers to main.o(i._Z16__NVIC_EnableIRQ4IRQn) for __NVIC_EnableIRQ(IRQn)
    main.o(i._Z15uart1Initializev) refers to uart_lpc17xx.o(.constdata) for Driver_USART1
    main.o(i._Z15uart1Initializev) refers to main.o(i._Z14USART_callbackj) for USART_callback(unsigned)
    main.o(i._Z17uart0UnInitializev) refers to uart_lpc17xx.o(.constdata) for Driver_USART0
    main.o(i._Z17uart1UnInitializev) refers to uart_lpc17xx.o(.constdata) for Driver_USART1
    main.o(i._Z9configI2Cv) refers to rtx_semaphore.o(i.osSemaphoreAcquire) for osSemaphoreAcquire
    main.o(i._Z9configI2Cv) refers to i2c_lpc17xx.o(.constdata) for Driver_I2C1
    main.o(i._Z9configI2Cv) refers to main.o(.constdata) for WHOAMI
    main.o(i._Z9configI2Cv) refers to main.o(.data) for semaphoreTransmitId
    main.o(i.main) refers to system_lpc17xx.o(i.SystemCoreClockUpdate) for SystemCoreClockUpdate
    main.o(i.main) refers to rtx_kernel.o(i.osKernelInitialize) for osKernelInitialize
    main.o(i.main) refers to main.o(i._Z13ledInitializev) for ledInitialize()
    main.o(i.main) refers to main.o(i._Z14i2c1Initializev) for i2c1Initialize()
    main.o(i.main) refers to rtx_semaphore.o(i.osSemaphoreNew) for osSemaphoreNew
    main.o(i.main) refers to rtx_thread.o(i.osThreadNew) for osThreadNew
    main.o(i.main) refers to rtx_kernel.o(i.osKernelStart) for osKernelStart
    main.o(i.main) refers to system_lpc17xx.o(.data) for SystemCoreClock
    main.o(i.main) refers to main.o(.bss) for semaphoreTransmitAttr
    main.o(i.main) refers to main.o(.data) for semaphoreTransmitId
    main.o(i.main) refers to main.o(i._Z15heartBeatThreadPv) for heartBeatThread(void*)
    main.o(i.main) refers to main.o(i._Z10imuUpdaterPv) for imuUpdater(void*)
    main.o(i.main) refers to main.o(i._Z13computeEnginePv) for computeEngine(void*)
    main.o(.ARM.exidx) refers to main.o(i._Z14USART_callbackj) for i._Z14USART_callbackj
    main.o(.ARM.exidx) refers to main.o(i._Z12I2C_callbackj) for i._Z12I2C_callbackj
    main.o(.ARM.exidx) refers to main.o(i._Z15uart0Initializev) for i._Z15uart0Initializev
    main.o(.ARM.exidx) refers to main.o(i._Z17uart0UnInitializev) for i._Z17uart0UnInitializev
    main.o(.ARM.exidx) refers to main.o(i._Z15uart1Initializev) for i._Z15uart1Initializev
    main.o(.ARM.exidx) refers to main.o(i._Z14i2c1Initializev) for i._Z14i2c1Initializev
    main.o(.ARM.exidx) refers to main.o(i._Z17uart1UnInitializev) for i._Z17uart1UnInitializev
    main.o(.ARM.exidx) refers to main.o(i._Z13ledInitializev) for i._Z13ledInitializev
    main.o(.ARM.exidx) refers to main.o(i._Z9configPWMv) for i._Z9configPWMv
    main.o(.ARM.exidx) refers to main.o(i._Z15heartBeatThreadPv) for i._Z15heartBeatThreadPv
    main.o(.ARM.exidx) refers to main.o(i._Z9configI2Cv) for i._Z9configI2Cv
    main.o(.ARM.exidx) refers to main.o(i._Z10imuUpdaterPv) for i._Z10imuUpdaterPv
    main.o(.ARM.exidx) refers to main.o(i._Z13computeEnginePv) for i._Z13computeEnginePv
    main.o(.ARM.exidx) refers to main.o(i.main) for i.main
    main.o(.ARM.exidx) refers to main.o(i._Z16__NVIC_EnableIRQ4IRQn) for i._Z16__NVIC_EnableIRQ4IRQn
    itm_arm.o(i._Z11itmPrintInti) refers to printf1.o(i.__0sprintf$1) for __2sprintf
    itm_arm.o(i._Z11itmPrintInti) refers to itm_arm.o(i._Z8itmPrintPc) for itmPrint(char*)
    itm_arm.o(i._Z13itmPrintlnInti) refers to printf1.o(i.__0sprintf$1) for __2sprintf
    itm_arm.o(i._Z13itmPrintlnInti) refers to itm_arm.o(i._Z10itmPrintlnPc) for itmPrintln(char*)
    itm_arm.o(.ARM.exidx) refers to itm_arm.o(i._Z10itmPrintlnPc) for i._Z10itmPrintlnPc
    itm_arm.o(.ARM.exidx) refers to itm_arm.o(i._Z8itmPrintPc) for i._Z8itmPrintPc
    itm_arm.o(.ARM.exidx) refers to itm_arm.o(i._Z13itmPrintlnInti) for i._Z13itmPrintlnInti
    itm_arm.o(.ARM.exidx) refers to itm_arm.o(i._Z11itmPrintInti) for i._Z11itmPrintInti
    ringbuffer.o(.ARM.exidx) refers to ringbuffer.o(i._ZN10RingBuffer15ringBufferWriteEc) for i._ZN10RingBuffer15ringBufferWriteEc
    ringbuffer.o(.ARM.exidx) refers to ringbuffer.o(i._ZN10RingBuffer21ringBufferStringWriteEPc) for i._ZN10RingBuffer21ringBufferStringWriteEPc
    ringbuffer.o(.ARM.exidx) refers to ringbuffer.o(i._ZN10RingBuffer14ringBufferReadEPc) for i._ZN10RingBuffer14ringBufferReadEPc
    ringbuffer.o(.ARM.exidx) refers to ringbuffer.o(i._ZN10RingBuffer20ringBufferStringReadEPc) for i._ZN10RingBuffer20ringBufferStringReadEPc
    irq_cm3.o(.text) refers to rtx_system.o(i.osRtxPendSV_Handler) for osRtxPendSV_Handler
    irq_cm3.o(.text) refers to rtx_system.o(i.osRtxTick_Handler) for osRtxTick_Handler
    irq_cm3.o(.text) refers to rtx_kernel.o(.data.os) for osRtxInfo
    irq_cm3.o(.text) refers to rtx_lib.o(.constdata) for osRtxUserSVC
    rtx_delay.o(i.osDelay) refers to rtx_evr.o(i.EvrRtxThreadDelay) for EvrRtxThreadDelay
    rtx_delay.o(i.osDelay) refers to rtx_evr.o(i.EvrRtxThreadError) for EvrRtxThreadError
    rtx_delay.o(i.osDelay) refers to rtx_delay.o(i.svcRtxDelay) for svcRtxDelay
    rtx_delay.o(i.osDelayUntil) refers to rtx_evr.o(i.EvrRtxThreadDelayUntil) for EvrRtxThreadDelayUntil
    rtx_delay.o(i.osDelayUntil) refers to rtx_evr.o(i.EvrRtxThreadError) for EvrRtxThreadError
    rtx_delay.o(i.osDelayUntil) refers to rtx_delay.o(i.svcRtxDelayUntil) for svcRtxDelayUntil
    rtx_delay.o(i.svcRtxDelay) refers to rtx_thread.o(i.osRtxThreadWaitEnter) for osRtxThreadWaitEnter
    rtx_delay.o(i.svcRtxDelayUntil) refers to rtx_evr.o(i.EvrRtxThreadError) for EvrRtxThreadError
    rtx_delay.o(i.svcRtxDelayUntil) refers to rtx_thread.o(i.osRtxThreadWaitEnter) for osRtxThreadWaitEnter
    rtx_delay.o(i.svcRtxDelayUntil) refers to rtx_kernel.o(.data.os) for osRtxInfo
    rtx_evflags.o(i.EventFlagsCheck) refers to rtx_evflags.o(.emb_text) for __asm___13_rtx_evflags_c_736f7bde__atomic_chk32_all
    rtx_evflags.o(i.EventFlagsClear) refers to rtx_evflags.o(.emb_text) for __asm___13_rtx_evflags_c_736f7bde__atomic_clr32
    rtx_evflags.o(i.EventFlagsSet) refers to rtx_evflags.o(.emb_text) for __asm___13_rtx_evflags_c_736f7bde__atomic_set32
    rtx_evflags.o(i.isrRtxEventFlagsWait) refers to rtx_evr.o(i.EvrRtxEventFlagsError) for EvrRtxEventFlagsError
    rtx_evflags.o(i.isrRtxEventFlagsWait) refers to rtx_evflags.o(i.EventFlagsCheck) for EventFlagsCheck
    rtx_evflags.o(i.isrRtxEventFlagsWait) refers to rtx_evr.o(i.EvrRtxEventFlagsWaitCompleted) for EvrRtxEventFlagsWaitCompleted
    rtx_evflags.o(i.isrRtxEventFlagsWait) refers to rtx_evr.o(i.EvrRtxEventFlagsWaitNotCompleted) for EvrRtxEventFlagsWaitNotCompleted
    rtx_evflags.o(i.osEventFlagsClear) refers to rtx_evr.o(i.EvrRtxEventFlagsClear) for EvrRtxEventFlagsClear
    rtx_evflags.o(i.osEventFlagsClear) refers to rtx_evflags.o(i.__get_IPSR) for __get_IPSR
    rtx_evflags.o(i.osEventFlagsClear) refers to rtx_evflags.o(i.__get_PRIMASK) for __get_PRIMASK
    rtx_evflags.o(i.osEventFlagsClear) refers to rtx_evflags.o(i.__get_BASEPRI) for __get_BASEPRI
    rtx_evflags.o(i.osEventFlagsClear) refers to rtx_evflags.o(i.svcRtxEventFlagsClear) for svcRtxEventFlagsClear
    rtx_evflags.o(i.osEventFlagsDelete) refers to rtx_evr.o(i.EvrRtxEventFlagsDelete) for EvrRtxEventFlagsDelete
    rtx_evflags.o(i.osEventFlagsDelete) refers to rtx_evflags.o(i.__get_IPSR) for __get_IPSR
    rtx_evflags.o(i.osEventFlagsDelete) refers to rtx_evflags.o(i.__get_PRIMASK) for __get_PRIMASK
    rtx_evflags.o(i.osEventFlagsDelete) refers to rtx_evflags.o(i.__get_BASEPRI) for __get_BASEPRI
    rtx_evflags.o(i.osEventFlagsDelete) refers to rtx_evr.o(i.EvrRtxEventFlagsError) for EvrRtxEventFlagsError
    rtx_evflags.o(i.osEventFlagsDelete) refers to rtx_evflags.o(i.svcRtxEventFlagsDelete) for svcRtxEventFlagsDelete
    rtx_evflags.o(i.osEventFlagsGet) refers to rtx_evflags.o(i.__get_IPSR) for __get_IPSR
    rtx_evflags.o(i.osEventFlagsGet) refers to rtx_evflags.o(i.__get_PRIMASK) for __get_PRIMASK
    rtx_evflags.o(i.osEventFlagsGet) refers to rtx_evflags.o(i.__get_BASEPRI) for __get_BASEPRI
    rtx_evflags.o(i.osEventFlagsGet) refers to rtx_evflags.o(i.svcRtxEventFlagsGet) for svcRtxEventFlagsGet
    rtx_evflags.o(i.osEventFlagsGetName) refers to rtx_evflags.o(i.__get_IPSR) for __get_IPSR
    rtx_evflags.o(i.osEventFlagsGetName) refers to rtx_evflags.o(i.__get_PRIMASK) for __get_PRIMASK
    rtx_evflags.o(i.osEventFlagsGetName) refers to rtx_evflags.o(i.__get_BASEPRI) for __get_BASEPRI
    rtx_evflags.o(i.osEventFlagsGetName) refers to rtx_evr.o(i.EvrRtxEventFlagsGetName) for EvrRtxEventFlagsGetName
    rtx_evflags.o(i.osEventFlagsGetName) refers to rtx_evflags.o(i.svcRtxEventFlagsGetName) for svcRtxEventFlagsGetName
    rtx_evflags.o(i.osEventFlagsNew) refers to rtx_evr.o(i.EvrRtxEventFlagsNew) for EvrRtxEventFlagsNew
    rtx_evflags.o(i.osEventFlagsNew) refers to rtx_evflags.o(i.__get_IPSR) for __get_IPSR
    rtx_evflags.o(i.osEventFlagsNew) refers to rtx_evflags.o(i.__get_PRIMASK) for __get_PRIMASK
    rtx_evflags.o(i.osEventFlagsNew) refers to rtx_evflags.o(i.__get_BASEPRI) for __get_BASEPRI
    rtx_evflags.o(i.osEventFlagsNew) refers to rtx_evr.o(i.EvrRtxEventFlagsError) for EvrRtxEventFlagsError
    rtx_evflags.o(i.osEventFlagsNew) refers to rtx_evflags.o(i.svcRtxEventFlagsNew) for svcRtxEventFlagsNew
    rtx_evflags.o(i.osEventFlagsSet) refers to rtx_evr.o(i.EvrRtxEventFlagsSet) for EvrRtxEventFlagsSet
    rtx_evflags.o(i.osEventFlagsSet) refers to rtx_evflags.o(i.__get_IPSR) for __get_IPSR
    rtx_evflags.o(i.osEventFlagsSet) refers to rtx_evflags.o(i.__get_PRIMASK) for __get_PRIMASK
    rtx_evflags.o(i.osEventFlagsSet) refers to rtx_evflags.o(i.__get_BASEPRI) for __get_BASEPRI
    rtx_evflags.o(i.osEventFlagsSet) refers to rtx_evr.o(i.EvrRtxEventFlagsError) for EvrRtxEventFlagsError
    rtx_evflags.o(i.osEventFlagsSet) refers to rtx_evflags.o(i.EventFlagsSet) for EventFlagsSet
    rtx_evflags.o(i.osEventFlagsSet) refers to rtx_system.o(i.osRtxPostProcess) for osRtxPostProcess
    rtx_evflags.o(i.osEventFlagsSet) refers to rtx_evr.o(i.EvrRtxEventFlagsSetDone) for EvrRtxEventFlagsSetDone
    rtx_evflags.o(i.osEventFlagsSet) refers to rtx_evflags.o(i.svcRtxEventFlagsSet) for svcRtxEventFlagsSet
    rtx_evflags.o(i.osEventFlagsWait) refers to rtx_evr.o(i.EvrRtxEventFlagsWait) for EvrRtxEventFlagsWait
    rtx_evflags.o(i.osEventFlagsWait) refers to rtx_evflags.o(i.__get_IPSR) for __get_IPSR
    rtx_evflags.o(i.osEventFlagsWait) refers to rtx_evflags.o(i.__get_PRIMASK) for __get_PRIMASK
    rtx_evflags.o(i.osEventFlagsWait) refers to rtx_evflags.o(i.__get_BASEPRI) for __get_BASEPRI
    rtx_evflags.o(i.osEventFlagsWait) refers to rtx_evflags.o(i.isrRtxEventFlagsWait) for isrRtxEventFlagsWait
    rtx_evflags.o(i.osEventFlagsWait) refers to rtx_evflags.o(i.svcRtxEventFlagsWait) for svcRtxEventFlagsWait
    rtx_evflags.o(i.osRtxEventFlagsPostProcess) refers to rtx_evflags.o(i.EventFlagsCheck) for EventFlagsCheck
    rtx_evflags.o(i.osRtxEventFlagsPostProcess) refers to rtx_thread.o(i.osRtxThreadListRemove) for osRtxThreadListRemove
    rtx_evflags.o(i.osRtxEventFlagsPostProcess) refers to rtx_thread.o(i.osRtxThreadWaitExit) for osRtxThreadWaitExit
    rtx_evflags.o(i.osRtxEventFlagsPostProcess) refers to rtx_evr.o(i.EvrRtxEventFlagsWaitCompleted) for EvrRtxEventFlagsWaitCompleted
    rtx_evflags.o(i.svcRtxEventFlagsClear) refers to rtx_evr.o(i.EvrRtxEventFlagsError) for EvrRtxEventFlagsError
    rtx_evflags.o(i.svcRtxEventFlagsClear) refers to rtx_evflags.o(i.EventFlagsClear) for EventFlagsClear
    rtx_evflags.o(i.svcRtxEventFlagsClear) refers to rtx_evr.o(i.EvrRtxEventFlagsClearDone) for EvrRtxEventFlagsClearDone
    rtx_evflags.o(i.svcRtxEventFlagsDelete) refers to rtx_evr.o(i.EvrRtxEventFlagsError) for EvrRtxEventFlagsError
    rtx_evflags.o(i.svcRtxEventFlagsDelete) refers to rtx_thread.o(i.osRtxThreadListGet) for osRtxThreadListGet
    rtx_evflags.o(i.svcRtxEventFlagsDelete) refers to rtx_thread.o(i.osRtxThreadWaitExit) for osRtxThreadWaitExit
    rtx_evflags.o(i.svcRtxEventFlagsDelete) refers to rtx_thread.o(i.osRtxThreadDispatch) for osRtxThreadDispatch
    rtx_evflags.o(i.svcRtxEventFlagsDelete) refers to rtx_mempool.o(i.osRtxMemoryPoolFree) for osRtxMemoryPoolFree
    rtx_evflags.o(i.svcRtxEventFlagsDelete) refers to rtx_memory.o(i.osRtxMemoryFree) for osRtxMemoryFree
    rtx_evflags.o(i.svcRtxEventFlagsDelete) refers to rtx_evr.o(i.EvrRtxEventFlagsDestroyed) for EvrRtxEventFlagsDestroyed
    rtx_evflags.o(i.svcRtxEventFlagsDelete) refers to rtx_kernel.o(.data.os) for osRtxInfo
    rtx_evflags.o(i.svcRtxEventFlagsGet) refers to rtx_evr.o(i.EvrRtxEventFlagsGet) for EvrRtxEventFlagsGet
    rtx_evflags.o(i.svcRtxEventFlagsGetName) refers to rtx_evr.o(i.EvrRtxEventFlagsGetName) for EvrRtxEventFlagsGetName
    rtx_evflags.o(i.svcRtxEventFlagsNew) refers to rtx_evr.o(i.EvrRtxEventFlagsError) for EvrRtxEventFlagsError
    rtx_evflags.o(i.svcRtxEventFlagsNew) refers to rtx_mempool.o(i.osRtxMemoryPoolAlloc) for osRtxMemoryPoolAlloc
    rtx_evflags.o(i.svcRtxEventFlagsNew) refers to rtx_memory.o(i.osRtxMemoryAlloc) for osRtxMemoryAlloc
    rtx_evflags.o(i.svcRtxEventFlagsNew) refers to rtx_evr.o(i.EvrRtxEventFlagsCreated) for EvrRtxEventFlagsCreated
    rtx_evflags.o(i.svcRtxEventFlagsNew) refers to rtx_kernel.o(.data.os) for osRtxInfo
    rtx_evflags.o(i.svcRtxEventFlagsNew) refers to rtx_evflags.o(i.osRtxEventFlagsPostProcess) for osRtxEventFlagsPostProcess
    rtx_evflags.o(i.svcRtxEventFlagsSet) refers to rtx_evr.o(i.EvrRtxEventFlagsError) for EvrRtxEventFlagsError
    rtx_evflags.o(i.svcRtxEventFlagsSet) refers to rtx_evflags.o(i.EventFlagsSet) for EventFlagsSet
    rtx_evflags.o(i.svcRtxEventFlagsSet) refers to rtx_evflags.o(i.EventFlagsCheck) for EventFlagsCheck
    rtx_evflags.o(i.svcRtxEventFlagsSet) refers to rtx_thread.o(i.osRtxThreadListRemove) for osRtxThreadListRemove
    rtx_evflags.o(i.svcRtxEventFlagsSet) refers to rtx_thread.o(i.osRtxThreadWaitExit) for osRtxThreadWaitExit
    rtx_evflags.o(i.svcRtxEventFlagsSet) refers to rtx_evr.o(i.EvrRtxEventFlagsWaitCompleted) for EvrRtxEventFlagsWaitCompleted
    rtx_evflags.o(i.svcRtxEventFlagsSet) refers to rtx_thread.o(i.osRtxThreadDispatch) for osRtxThreadDispatch
    rtx_evflags.o(i.svcRtxEventFlagsSet) refers to rtx_evr.o(i.EvrRtxEventFlagsSetDone) for EvrRtxEventFlagsSetDone
    rtx_evflags.o(i.svcRtxEventFlagsWait) refers to rtx_evr.o(i.EvrRtxEventFlagsError) for EvrRtxEventFlagsError
    rtx_evflags.o(i.svcRtxEventFlagsWait) refers to rtx_evflags.o(i.EventFlagsCheck) for EventFlagsCheck
    rtx_evflags.o(i.svcRtxEventFlagsWait) refers to rtx_evr.o(i.EvrRtxEventFlagsWaitCompleted) for EvrRtxEventFlagsWaitCompleted
    rtx_evflags.o(i.svcRtxEventFlagsWait) refers to rtx_evr.o(i.EvrRtxEventFlagsWaitPending) for EvrRtxEventFlagsWaitPending
    rtx_evflags.o(i.svcRtxEventFlagsWait) refers to rtx_thread.o(i.osRtxThreadListPut) for osRtxThreadListPut
    rtx_evflags.o(i.svcRtxEventFlagsWait) refers to rtx_thread.o(i.osRtxThreadWaitEnter) for osRtxThreadWaitEnter
    rtx_evflags.o(i.svcRtxEventFlagsWait) refers to rtx_evr.o(i.EvrRtxEventFlagsWaitNotCompleted) for EvrRtxEventFlagsWaitNotCompleted
    rtx_evflags.o(i.svcRtxEventFlagsWait) refers to rtx_kernel.o(.data.os) for osRtxInfo
    rtx_kernel.o(i.KernelBlock) refers to os_systick.o(i.OS_Tick_Disable) for OS_Tick_Disable
    rtx_kernel.o(i.KernelBlock) refers to rtx_kernel.o(.data.os) for osRtxInfo
    rtx_kernel.o(i.KernelUnblock) refers to os_systick.o(i.OS_Tick_Enable) for OS_Tick_Enable
    rtx_kernel.o(i.KernelUnblock) refers to rtx_kernel.o(.data.os) for osRtxInfo
    rtx_kernel.o(i.osKernelGetInfo) refers to rtx_evr.o(i.EvrRtxKernelGetInfo) for EvrRtxKernelGetInfo
    rtx_kernel.o(i.osKernelGetInfo) refers to rtx_kernel.o(i.__get_IPSR) for __get_IPSR
    rtx_kernel.o(i.osKernelGetInfo) refers to rtx_kernel.o(i.__get_PRIMASK) for __get_PRIMASK
    rtx_kernel.o(i.osKernelGetInfo) refers to rtx_kernel.o(i.__get_BASEPRI) for __get_BASEPRI
    rtx_kernel.o(i.osKernelGetInfo) refers to rtx_evr.o(i.EvrRtxKernelError) for EvrRtxKernelError
    rtx_kernel.o(i.osKernelGetInfo) refers to rtx_kernel.o(i.__get_CONTROL) for __get_CONTROL
    rtx_kernel.o(i.osKernelGetInfo) refers to rtx_kernel.o(i.svcRtxKernelGetInfo) for svcRtxKernelGetInfo
    rtx_kernel.o(i.osKernelGetState) refers to rtx_kernel.o(i.__get_IPSR) for __get_IPSR
    rtx_kernel.o(i.osKernelGetState) refers to rtx_kernel.o(i.__get_PRIMASK) for __get_PRIMASK
    rtx_kernel.o(i.osKernelGetState) refers to rtx_kernel.o(i.__get_BASEPRI) for __get_BASEPRI
    rtx_kernel.o(i.osKernelGetState) refers to rtx_evr.o(i.EvrRtxKernelGetState) for EvrRtxKernelGetState
    rtx_kernel.o(i.osKernelGetState) refers to rtx_kernel.o(i.__get_CONTROL) for __get_CONTROL
    rtx_kernel.o(i.osKernelGetState) refers to rtx_kernel.o(i.svcRtxKernelGetState) for svcRtxKernelGetState
    rtx_kernel.o(i.osKernelGetSysTimerCount) refers to rtx_kernel.o(i.__get_IPSR) for __get_IPSR
    rtx_kernel.o(i.osKernelGetSysTimerCount) refers to rtx_kernel.o(i.__get_PRIMASK) for __get_PRIMASK
    rtx_kernel.o(i.osKernelGetSysTimerCount) refers to rtx_kernel.o(i.__get_BASEPRI) for __get_BASEPRI
    rtx_kernel.o(i.osKernelGetSysTimerCount) refers to rtx_kernel.o(i.svcRtxKernelGetSysTimerCount) for svcRtxKernelGetSysTimerCount
    rtx_kernel.o(i.osKernelGetSysTimerFreq) refers to rtx_kernel.o(i.__get_IPSR) for __get_IPSR
    rtx_kernel.o(i.osKernelGetSysTimerFreq) refers to rtx_kernel.o(i.__get_PRIMASK) for __get_PRIMASK
    rtx_kernel.o(i.osKernelGetSysTimerFreq) refers to rtx_kernel.o(i.__get_BASEPRI) for __get_BASEPRI
    rtx_kernel.o(i.osKernelGetSysTimerFreq) refers to rtx_kernel.o(i.svcRtxKernelGetSysTimerFreq) for svcRtxKernelGetSysTimerFreq
    rtx_kernel.o(i.osKernelGetTickCount) refers to rtx_kernel.o(i.__get_IPSR) for __get_IPSR
    rtx_kernel.o(i.osKernelGetTickCount) refers to rtx_kernel.o(i.__get_PRIMASK) for __get_PRIMASK
    rtx_kernel.o(i.osKernelGetTickCount) refers to rtx_kernel.o(i.__get_BASEPRI) for __get_BASEPRI
    rtx_kernel.o(i.osKernelGetTickCount) refers to rtx_kernel.o(i.svcRtxKernelGetTickCount) for svcRtxKernelGetTickCount
    rtx_kernel.o(i.osKernelGetTickFreq) refers to rtx_kernel.o(i.__get_IPSR) for __get_IPSR
    rtx_kernel.o(i.osKernelGetTickFreq) refers to rtx_kernel.o(i.__get_PRIMASK) for __get_PRIMASK
    rtx_kernel.o(i.osKernelGetTickFreq) refers to rtx_kernel.o(i.__get_BASEPRI) for __get_BASEPRI
    rtx_kernel.o(i.osKernelGetTickFreq) refers to rtx_kernel.o(i.svcRtxKernelGetTickFreq) for svcRtxKernelGetTickFreq
    rtx_kernel.o(i.osKernelInitialize) refers to rtx_evr.o(i.EvrRtxKernelInitialize) for EvrRtxKernelInitialize
    rtx_kernel.o(i.osKernelInitialize) refers to rtx_kernel.o(i.__get_IPSR) for __get_IPSR
    rtx_kernel.o(i.osKernelInitialize) refers to rtx_kernel.o(i.__get_PRIMASK) for __get_PRIMASK
    rtx_kernel.o(i.osKernelInitialize) refers to rtx_kernel.o(i.__get_BASEPRI) for __get_BASEPRI
    rtx_kernel.o(i.osKernelInitialize) refers to rtx_evr.o(i.EvrRtxKernelError) for EvrRtxKernelError
    rtx_kernel.o(i.osKernelInitialize) refers to rtx_kernel.o(i.__get_CONTROL) for __get_CONTROL
    rtx_kernel.o(i.osKernelInitialize) refers to rtx_kernel.o(i.svcRtxKernelInitialize) for svcRtxKernelInitialize
    rtx_kernel.o(i.osKernelLock) refers to rtx_evr.o(i.EvrRtxKernelLock) for EvrRtxKernelLock
    rtx_kernel.o(i.osKernelLock) refers to rtx_kernel.o(i.__get_IPSR) for __get_IPSR
    rtx_kernel.o(i.osKernelLock) refers to rtx_kernel.o(i.__get_PRIMASK) for __get_PRIMASK
    rtx_kernel.o(i.osKernelLock) refers to rtx_kernel.o(i.__get_BASEPRI) for __get_BASEPRI
    rtx_kernel.o(i.osKernelLock) refers to rtx_evr.o(i.EvrRtxKernelError) for EvrRtxKernelError
    rtx_kernel.o(i.osKernelLock) refers to rtx_kernel.o(i.svcRtxKernelLock) for svcRtxKernelLock
    rtx_kernel.o(i.osKernelRestoreLock) refers to rtx_evr.o(i.EvrRtxKernelRestoreLock) for EvrRtxKernelRestoreLock
    rtx_kernel.o(i.osKernelRestoreLock) refers to rtx_kernel.o(i.__get_IPSR) for __get_IPSR
    rtx_kernel.o(i.osKernelRestoreLock) refers to rtx_kernel.o(i.__get_PRIMASK) for __get_PRIMASK
    rtx_kernel.o(i.osKernelRestoreLock) refers to rtx_kernel.o(i.__get_BASEPRI) for __get_BASEPRI
    rtx_kernel.o(i.osKernelRestoreLock) refers to rtx_evr.o(i.EvrRtxKernelError) for EvrRtxKernelError
    rtx_kernel.o(i.osKernelRestoreLock) refers to rtx_kernel.o(i.svcRtxKernelRestoreLock) for svcRtxKernelRestoreLock
    rtx_kernel.o(i.osKernelResume) refers to rtx_evr.o(i.EvrRtxKernelResume) for EvrRtxKernelResume
    rtx_kernel.o(i.osKernelResume) refers to rtx_kernel.o(i.__get_IPSR) for __get_IPSR
    rtx_kernel.o(i.osKernelResume) refers to rtx_kernel.o(i.__get_PRIMASK) for __get_PRIMASK
    rtx_kernel.o(i.osKernelResume) refers to rtx_kernel.o(i.__get_BASEPRI) for __get_BASEPRI
    rtx_kernel.o(i.osKernelResume) refers to rtx_evr.o(i.EvrRtxKernelError) for EvrRtxKernelError
    rtx_kernel.o(i.osKernelResume) refers to rtx_kernel.o(i.svcRtxKernelResume) for svcRtxKernelResume
    rtx_kernel.o(i.osKernelStart) refers to rtx_evr.o(i.EvrRtxKernelStart) for EvrRtxKernelStart
    rtx_kernel.o(i.osKernelStart) refers to rtx_kernel.o(i.__get_IPSR) for __get_IPSR
    rtx_kernel.o(i.osKernelStart) refers to rtx_kernel.o(i.__get_PRIMASK) for __get_PRIMASK
    rtx_kernel.o(i.osKernelStart) refers to rtx_kernel.o(i.__get_BASEPRI) for __get_BASEPRI
    rtx_kernel.o(i.osKernelStart) refers to rtx_evr.o(i.EvrRtxKernelError) for EvrRtxKernelError
    rtx_kernel.o(i.osKernelStart) refers to rtx_kernel.o(i.__get_CONTROL) for __get_CONTROL
    rtx_kernel.o(i.osKernelStart) refers to rtx_kernel.o(i.svcRtxKernelStart) for svcRtxKernelStart
    rtx_kernel.o(i.osKernelSuspend) refers to rtx_evr.o(i.EvrRtxKernelSuspend) for EvrRtxKernelSuspend
    rtx_kernel.o(i.osKernelSuspend) refers to rtx_kernel.o(i.__get_IPSR) for __get_IPSR
    rtx_kernel.o(i.osKernelSuspend) refers to rtx_kernel.o(i.__get_PRIMASK) for __get_PRIMASK
    rtx_kernel.o(i.osKernelSuspend) refers to rtx_kernel.o(i.__get_BASEPRI) for __get_BASEPRI
    rtx_kernel.o(i.osKernelSuspend) refers to rtx_evr.o(i.EvrRtxKernelError) for EvrRtxKernelError
    rtx_kernel.o(i.osKernelSuspend) refers to rtx_kernel.o(i.svcRtxKernelSuspend) for svcRtxKernelSuspend
    rtx_kernel.o(i.osKernelUnlock) refers to rtx_evr.o(i.EvrRtxKernelUnlock) for EvrRtxKernelUnlock
    rtx_kernel.o(i.osKernelUnlock) refers to rtx_kernel.o(i.__get_IPSR) for __get_IPSR
    rtx_kernel.o(i.osKernelUnlock) refers to rtx_kernel.o(i.__get_PRIMASK) for __get_PRIMASK
    rtx_kernel.o(i.osKernelUnlock) refers to rtx_kernel.o(i.__get_BASEPRI) for __get_BASEPRI
    rtx_kernel.o(i.osKernelUnlock) refers to rtx_evr.o(i.EvrRtxKernelError) for EvrRtxKernelError
    rtx_kernel.o(i.osKernelUnlock) refers to rtx_kernel.o(i.svcRtxKernelUnlock) for svcRtxKernelUnlock
    rtx_kernel.o(i.svcRtxKernelGetInfo) refers to memcpya.o(.text) for __aeabi_memcpy
    rtx_kernel.o(i.svcRtxKernelGetInfo) refers to rtx_evr.o(i.EvrRtxKernelInfoRetrieved) for EvrRtxKernelInfoRetrieved
    rtx_kernel.o(i.svcRtxKernelGetState) refers to rtx_evr.o(i.EvrRtxKernelGetState) for EvrRtxKernelGetState
    rtx_kernel.o(i.svcRtxKernelGetState) refers to rtx_kernel.o(.data.os) for osRtxInfo
    rtx_kernel.o(i.svcRtxKernelGetSysTimerCount) refers to os_systick.o(i.OS_Tick_GetCount) for OS_Tick_GetCount
    rtx_kernel.o(i.svcRtxKernelGetSysTimerCount) refers to os_systick.o(i.OS_Tick_GetOverflow) for OS_Tick_GetOverflow
    rtx_kernel.o(i.svcRtxKernelGetSysTimerCount) refers to os_systick.o(i.OS_Tick_GetInterval) for OS_Tick_GetInterval
    rtx_kernel.o(i.svcRtxKernelGetSysTimerCount) refers to rtx_evr.o(i.EvrRtxKernelGetSysTimerCount) for EvrRtxKernelGetSysTimerCount
    rtx_kernel.o(i.svcRtxKernelGetSysTimerCount) refers to rtx_kernel.o(.data.os) for osRtxInfo
    rtx_kernel.o(i.svcRtxKernelGetSysTimerFreq) refers to os_systick.o(i.OS_Tick_GetClock) for OS_Tick_GetClock
    rtx_kernel.o(i.svcRtxKernelGetSysTimerFreq) refers to rtx_evr.o(i.EvrRtxKernelGetSysTimerFreq) for EvrRtxKernelGetSysTimerFreq
    rtx_kernel.o(i.svcRtxKernelGetTickCount) refers to rtx_evr.o(i.EvrRtxKernelGetTickCount) for EvrRtxKernelGetTickCount
    rtx_kernel.o(i.svcRtxKernelGetTickCount) refers to rtx_kernel.o(.data.os) for osRtxInfo
    rtx_kernel.o(i.svcRtxKernelGetTickFreq) refers to rtx_evr.o(i.EvrRtxKernelGetTickFreq) for EvrRtxKernelGetTickFreq
    rtx_kernel.o(i.svcRtxKernelGetTickFreq) refers to rtx_lib.o(.rodata) for osRtxConfig
    rtx_kernel.o(i.svcRtxKernelInitialize) refers to rtx_evr.o(i.EvrRtxKernelInitializeCompleted) for EvrRtxKernelInitializeCompleted
    rtx_kernel.o(i.svcRtxKernelInitialize) refers to rtx_evr.o(i.EvrRtxKernelError) for EvrRtxKernelError
    rtx_kernel.o(i.svcRtxKernelInitialize) refers to memseta.o(.text) for __aeabi_memclr4
    rtx_kernel.o(i.svcRtxKernelInitialize) refers to rtx_memory.o(i.osRtxMemoryInit) for osRtxMemoryInit
    rtx_kernel.o(i.svcRtxKernelInitialize) refers to rtx_mempool.o(i.osRtxMemoryPoolInit) for osRtxMemoryPoolInit
    rtx_kernel.o(i.svcRtxKernelInitialize) refers to rtx_kernel.o(.data.os) for osRtxInfo
    rtx_kernel.o(i.svcRtxKernelInitialize) refers to rtx_lib.o(.rodata) for osRtxConfig
    rtx_kernel.o(i.svcRtxKernelLock) refers to rtx_evr.o(i.EvrRtxKernelLocked) for EvrRtxKernelLocked
    rtx_kernel.o(i.svcRtxKernelLock) refers to rtx_evr.o(i.EvrRtxKernelError) for EvrRtxKernelError
    rtx_kernel.o(i.svcRtxKernelLock) refers to rtx_kernel.o(.data.os) for osRtxInfo
    rtx_kernel.o(i.svcRtxKernelRestoreLock) refers to rtx_evr.o(i.EvrRtxKernelLockRestored) for EvrRtxKernelLockRestored
    rtx_kernel.o(i.svcRtxKernelRestoreLock) refers to rtx_evr.o(i.EvrRtxKernelError) for EvrRtxKernelError
    rtx_kernel.o(i.svcRtxKernelRestoreLock) refers to rtx_kernel.o(.data.os) for osRtxInfo
    rtx_kernel.o(i.svcRtxKernelResume) refers to rtx_evr.o(i.EvrRtxKernelResumed) for EvrRtxKernelResumed
    rtx_kernel.o(i.svcRtxKernelResume) refers to rtx_thread.o(i.osRtxThreadDelayTick) for osRtxThreadDelayTick
    rtx_kernel.o(i.svcRtxKernelResume) refers to rtx_thread.o(i.osRtxThreadDispatch) for osRtxThreadDispatch
    rtx_kernel.o(i.svcRtxKernelResume) refers to rtx_kernel.o(i.KernelUnblock) for KernelUnblock
    rtx_kernel.o(i.svcRtxKernelResume) refers to rtx_kernel.o(.data.os) for osRtxInfo
    rtx_kernel.o(i.svcRtxKernelStart) refers to rtx_evr.o(i.EvrRtxKernelError) for EvrRtxKernelError
    rtx_kernel.o(i.svcRtxKernelStart) refers to rtx_thread.o(i.svcRtxThreadNew) for svcRtxThreadNew
    rtx_kernel.o(i.svcRtxKernelStart) refers to os_systick.o(i.OS_Tick_Setup) for OS_Tick_Setup
    rtx_kernel.o(i.svcRtxKernelStart) refers to os_systick.o(i.OS_Tick_GetIRQn) for OS_Tick_GetIRQn
    rtx_kernel.o(i.svcRtxKernelStart) refers to os_systick.o(i.OS_Tick_Enable) for OS_Tick_Enable
    rtx_kernel.o(i.svcRtxKernelStart) refers to rtx_thread.o(i.osRtxThreadListGet) for osRtxThreadListGet
    rtx_kernel.o(i.svcRtxKernelStart) refers to rtx_thread.o(i.osRtxThreadSwitch) for osRtxThreadSwitch
    rtx_kernel.o(i.svcRtxKernelStart) refers to rtx_evr.o(i.EvrRtxKernelStarted) for EvrRtxKernelStarted
    rtx_kernel.o(i.svcRtxKernelStart) refers to rtx_kernel.o(.data.os) for osRtxInfo
    rtx_kernel.o(i.svcRtxKernelStart) refers to rtx_lib.o(.rodata) for osRtxConfig
    rtx_kernel.o(i.svcRtxKernelStart) refers to rtx_config.o(i.osRtxIdleThread) for osRtxIdleThread
    rtx_kernel.o(i.svcRtxKernelStart) refers to rtx_timer.o(i.osRtxTimerThread) for osRtxTimerThread
    rtx_kernel.o(i.svcRtxKernelStart) refers to irq_cm3.o(.text) for SysTick_Handler
    rtx_kernel.o(i.svcRtxKernelSuspend) refers to rtx_evr.o(i.EvrRtxKernelError) for EvrRtxKernelError
    rtx_kernel.o(i.svcRtxKernelSuspend) refers to rtx_kernel.o(i.KernelBlock) for KernelBlock
    rtx_kernel.o(i.svcRtxKernelSuspend) refers to rtx_evr.o(i.EvrRtxKernelSuspended) for EvrRtxKernelSuspended
    rtx_kernel.o(i.svcRtxKernelSuspend) refers to rtx_kernel.o(.data.os) for osRtxInfo
    rtx_kernel.o(i.svcRtxKernelUnlock) refers to rtx_evr.o(i.EvrRtxKernelUnlocked) for EvrRtxKernelUnlocked
    rtx_kernel.o(i.svcRtxKernelUnlock) refers to rtx_evr.o(i.EvrRtxKernelError) for EvrRtxKernelError
    rtx_kernel.o(i.svcRtxKernelUnlock) refers to rtx_kernel.o(.data.os) for osRtxInfo
    rtx_kernel.o(.data.os) refers to rtx_kernel.o(.conststrlit) for .conststrlit
    rtx_lib.o(.constdata) refers to rtx_lib.o(.bss.os.thread.cb) for os_idle_thread_cb
    rtx_lib.o(.constdata) refers to rtx_lib.o(.bss.os.thread.stack) for os_idle_thread_stack
    rtx_lib.o(.constdata) refers to rtx_lib.o(.bss.os.msgqueue.cb) for os_timer_mq_cb
    rtx_lib.o(.constdata) refers to rtx_lib.o(.bss.os.msgqueue.mem) for os_timer_mq_data
    rtx_lib.o(.data) refers to irq_cm3.o(.constdata) for irqRtxLib
    rtx_lib.o(.rodata) refers to rtx_lib.o(.bss.os) for os_isr_queue
    rtx_lib.o(.rodata) refers to rtx_lib.o(.constdata) for os_idle_thread_attr
    rtx_memory.o(i.osRtxMemoryAlloc) refers to rtx_evr.o(i.EvrRtxMemoryAlloc) for EvrRtxMemoryAlloc
    rtx_memory.o(i.osRtxMemoryFree) refers to rtx_evr.o(i.EvrRtxMemoryFree) for EvrRtxMemoryFree
    rtx_memory.o(i.osRtxMemoryInit) refers to rtx_evr.o(i.EvrRtxMemoryInit) for EvrRtxMemoryInit
    rtx_mempool.o(i.isrRtxMemoryPoolFree) refers to rtx_evr.o(i.EvrRtxMemoryPoolError) for EvrRtxMemoryPoolError
    rtx_mempool.o(i.isrRtxMemoryPoolFree) refers to rtx_mempool.o(i.osRtxMemoryPoolFree) for osRtxMemoryPoolFree
    rtx_mempool.o(i.isrRtxMemoryPoolFree) refers to rtx_system.o(i.osRtxPostProcess) for osRtxPostProcess
    rtx_mempool.o(i.isrRtxMemoryPoolFree) refers to rtx_evr.o(i.EvrRtxMemoryPoolDeallocated) for EvrRtxMemoryPoolDeallocated
    rtx_mempool.o(i.isrRtxMemoryPoolFree) refers to rtx_evr.o(i.EvrRtxMemoryPoolFreeFailed) for EvrRtxMemoryPoolFreeFailed
    rtx_mempool.o(i.osMemoryPoolAlloc) refers to rtx_evr.o(i.EvrRtxMemoryPoolAlloc) for EvrRtxMemoryPoolAlloc
    rtx_mempool.o(i.osMemoryPoolAlloc) refers to rtx_mempool.o(i.__get_IPSR) for __get_IPSR
    rtx_mempool.o(i.osMemoryPoolAlloc) refers to rtx_mempool.o(i.__get_PRIMASK) for __get_PRIMASK
    rtx_mempool.o(i.osMemoryPoolAlloc) refers to rtx_mempool.o(i.__get_BASEPRI) for __get_BASEPRI
    rtx_mempool.o(i.osMemoryPoolAlloc) refers to rtx_evr.o(i.EvrRtxMemoryPoolError) for EvrRtxMemoryPoolError
    rtx_mempool.o(i.osMemoryPoolAlloc) refers to rtx_mempool.o(i.osRtxMemoryPoolAlloc) for osRtxMemoryPoolAlloc
    rtx_mempool.o(i.osMemoryPoolAlloc) refers to rtx_evr.o(i.EvrRtxMemoryPoolAllocFailed) for EvrRtxMemoryPoolAllocFailed
    rtx_mempool.o(i.osMemoryPoolAlloc) refers to rtx_evr.o(i.EvrRtxMemoryPoolAllocated) for EvrRtxMemoryPoolAllocated
    rtx_mempool.o(i.osMemoryPoolAlloc) refers to rtx_mempool.o(i.svcRtxMemoryPoolAlloc) for svcRtxMemoryPoolAlloc
    rtx_mempool.o(i.osMemoryPoolDelete) refers to rtx_evr.o(i.EvrRtxMemoryPoolDelete) for EvrRtxMemoryPoolDelete
    rtx_mempool.o(i.osMemoryPoolDelete) refers to rtx_mempool.o(i.__get_IPSR) for __get_IPSR
    rtx_mempool.o(i.osMemoryPoolDelete) refers to rtx_mempool.o(i.__get_PRIMASK) for __get_PRIMASK
    rtx_mempool.o(i.osMemoryPoolDelete) refers to rtx_mempool.o(i.__get_BASEPRI) for __get_BASEPRI
    rtx_mempool.o(i.osMemoryPoolDelete) refers to rtx_evr.o(i.EvrRtxMemoryPoolError) for EvrRtxMemoryPoolError
    rtx_mempool.o(i.osMemoryPoolDelete) refers to rtx_mempool.o(i.svcRtxMemoryPoolDelete) for svcRtxMemoryPoolDelete
    rtx_mempool.o(i.osMemoryPoolFree) refers to rtx_evr.o(i.EvrRtxMemoryPoolFree) for EvrRtxMemoryPoolFree
    rtx_mempool.o(i.osMemoryPoolFree) refers to rtx_mempool.o(i.__get_IPSR) for __get_IPSR
    rtx_mempool.o(i.osMemoryPoolFree) refers to rtx_mempool.o(i.__get_PRIMASK) for __get_PRIMASK
    rtx_mempool.o(i.osMemoryPoolFree) refers to rtx_mempool.o(i.__get_BASEPRI) for __get_BASEPRI
    rtx_mempool.o(i.osMemoryPoolFree) refers to rtx_mempool.o(i.isrRtxMemoryPoolFree) for isrRtxMemoryPoolFree
    rtx_mempool.o(i.osMemoryPoolFree) refers to rtx_mempool.o(i.svcRtxMemoryPoolFree) for svcRtxMemoryPoolFree
    rtx_mempool.o(i.osMemoryPoolGetBlockSize) refers to rtx_mempool.o(i.__get_IPSR) for __get_IPSR
    rtx_mempool.o(i.osMemoryPoolGetBlockSize) refers to rtx_mempool.o(i.__get_PRIMASK) for __get_PRIMASK
    rtx_mempool.o(i.osMemoryPoolGetBlockSize) refers to rtx_mempool.o(i.__get_BASEPRI) for __get_BASEPRI
    rtx_mempool.o(i.osMemoryPoolGetBlockSize) refers to rtx_mempool.o(i.svcRtxMemoryPoolGetBlockSize) for svcRtxMemoryPoolGetBlockSize
    rtx_mempool.o(i.osMemoryPoolGetCapacity) refers to rtx_mempool.o(i.__get_IPSR) for __get_IPSR
    rtx_mempool.o(i.osMemoryPoolGetCapacity) refers to rtx_mempool.o(i.__get_PRIMASK) for __get_PRIMASK
    rtx_mempool.o(i.osMemoryPoolGetCapacity) refers to rtx_mempool.o(i.__get_BASEPRI) for __get_BASEPRI
    rtx_mempool.o(i.osMemoryPoolGetCapacity) refers to rtx_mempool.o(i.svcRtxMemoryPoolGetCapacity) for svcRtxMemoryPoolGetCapacity
    rtx_mempool.o(i.osMemoryPoolGetCount) refers to rtx_mempool.o(i.__get_IPSR) for __get_IPSR
    rtx_mempool.o(i.osMemoryPoolGetCount) refers to rtx_mempool.o(i.__get_PRIMASK) for __get_PRIMASK
    rtx_mempool.o(i.osMemoryPoolGetCount) refers to rtx_mempool.o(i.__get_BASEPRI) for __get_BASEPRI
    rtx_mempool.o(i.osMemoryPoolGetCount) refers to rtx_mempool.o(i.svcRtxMemoryPoolGetCount) for svcRtxMemoryPoolGetCount
    rtx_mempool.o(i.osMemoryPoolGetName) refers to rtx_mempool.o(i.__get_IPSR) for __get_IPSR
    rtx_mempool.o(i.osMemoryPoolGetName) refers to rtx_mempool.o(i.__get_PRIMASK) for __get_PRIMASK
    rtx_mempool.o(i.osMemoryPoolGetName) refers to rtx_mempool.o(i.__get_BASEPRI) for __get_BASEPRI
    rtx_mempool.o(i.osMemoryPoolGetName) refers to rtx_evr.o(i.EvrRtxMemoryPoolGetName) for EvrRtxMemoryPoolGetName
    rtx_mempool.o(i.osMemoryPoolGetName) refers to rtx_mempool.o(i.svcRtxMemoryPoolGetName) for svcRtxMemoryPoolGetName
    rtx_mempool.o(i.osMemoryPoolGetSpace) refers to rtx_mempool.o(i.__get_IPSR) for __get_IPSR
    rtx_mempool.o(i.osMemoryPoolGetSpace) refers to rtx_mempool.o(i.__get_PRIMASK) for __get_PRIMASK
    rtx_mempool.o(i.osMemoryPoolGetSpace) refers to rtx_mempool.o(i.__get_BASEPRI) for __get_BASEPRI
    rtx_mempool.o(i.osMemoryPoolGetSpace) refers to rtx_mempool.o(i.svcRtxMemoryPoolGetSpace) for svcRtxMemoryPoolGetSpace
    rtx_mempool.o(i.osMemoryPoolNew) refers to rtx_evr.o(i.EvrRtxMemoryPoolNew) for EvrRtxMemoryPoolNew
    rtx_mempool.o(i.osMemoryPoolNew) refers to rtx_mempool.o(i.__get_IPSR) for __get_IPSR
    rtx_mempool.o(i.osMemoryPoolNew) refers to rtx_mempool.o(i.__get_PRIMASK) for __get_PRIMASK
    rtx_mempool.o(i.osMemoryPoolNew) refers to rtx_mempool.o(i.__get_BASEPRI) for __get_BASEPRI
    rtx_mempool.o(i.osMemoryPoolNew) refers to rtx_evr.o(i.EvrRtxMemoryPoolError) for EvrRtxMemoryPoolError
    rtx_mempool.o(i.osMemoryPoolNew) refers to rtx_mempool.o(i.svcRtxMemoryPoolNew) for svcRtxMemoryPoolNew
    rtx_mempool.o(i.osRtxMemoryPoolAlloc) refers to rtx_evr.o(i.EvrRtxMemoryBlockAlloc) for EvrRtxMemoryBlockAlloc
    rtx_mempool.o(i.osRtxMemoryPoolAlloc) refers to rtx_mempool.o(.emb_text) for __asm___13_rtx_mempool_c_7914b4c7__atomic_inc32_lt
    rtx_mempool.o(i.osRtxMemoryPoolFree) refers to rtx_evr.o(i.EvrRtxMemoryBlockFree) for EvrRtxMemoryBlockFree
    rtx_mempool.o(i.osRtxMemoryPoolFree) refers to rtx_mempool.o(.emb_text) for __asm___13_rtx_mempool_c_7914b4c7__atomic_dec32_nz
    rtx_mempool.o(i.osRtxMemoryPoolInit) refers to rtx_evr.o(i.EvrRtxMemoryBlockInit) for EvrRtxMemoryBlockInit
    rtx_mempool.o(i.osRtxMemoryPoolPostProcess) refers to rtx_mempool.o(i.osRtxMemoryPoolAlloc) for osRtxMemoryPoolAlloc
    rtx_mempool.o(i.osRtxMemoryPoolPostProcess) refers to rtx_thread.o(i.osRtxThreadListGet) for osRtxThreadListGet
    rtx_mempool.o(i.osRtxMemoryPoolPostProcess) refers to rtx_thread.o(i.osRtxThreadWaitExit) for osRtxThreadWaitExit
    rtx_mempool.o(i.osRtxMemoryPoolPostProcess) refers to rtx_evr.o(i.EvrRtxMemoryPoolAllocated) for EvrRtxMemoryPoolAllocated
    rtx_mempool.o(i.svcRtxMemoryPoolAlloc) refers to rtx_evr.o(i.EvrRtxMemoryPoolError) for EvrRtxMemoryPoolError
    rtx_mempool.o(i.svcRtxMemoryPoolAlloc) refers to rtx_mempool.o(i.osRtxMemoryPoolAlloc) for osRtxMemoryPoolAlloc
    rtx_mempool.o(i.svcRtxMemoryPoolAlloc) refers to rtx_evr.o(i.EvrRtxMemoryPoolAllocPending) for EvrRtxMemoryPoolAllocPending
    rtx_mempool.o(i.svcRtxMemoryPoolAlloc) refers to rtx_thread.o(i.osRtxThreadListPut) for osRtxThreadListPut
    rtx_mempool.o(i.svcRtxMemoryPoolAlloc) refers to rtx_thread.o(i.osRtxThreadWaitEnter) for osRtxThreadWaitEnter
    rtx_mempool.o(i.svcRtxMemoryPoolAlloc) refers to rtx_evr.o(i.EvrRtxMemoryPoolAllocFailed) for EvrRtxMemoryPoolAllocFailed
    rtx_mempool.o(i.svcRtxMemoryPoolAlloc) refers to rtx_evr.o(i.EvrRtxMemoryPoolAllocated) for EvrRtxMemoryPoolAllocated
    rtx_mempool.o(i.svcRtxMemoryPoolAlloc) refers to rtx_kernel.o(.data.os) for osRtxInfo
    rtx_mempool.o(i.svcRtxMemoryPoolDelete) refers to rtx_evr.o(i.EvrRtxMemoryPoolError) for EvrRtxMemoryPoolError
    rtx_mempool.o(i.svcRtxMemoryPoolDelete) refers to rtx_thread.o(i.osRtxThreadListGet) for osRtxThreadListGet
    rtx_mempool.o(i.svcRtxMemoryPoolDelete) refers to rtx_thread.o(i.osRtxThreadWaitExit) for osRtxThreadWaitExit
    rtx_mempool.o(i.svcRtxMemoryPoolDelete) refers to rtx_thread.o(i.osRtxThreadDispatch) for osRtxThreadDispatch
    rtx_mempool.o(i.svcRtxMemoryPoolDelete) refers to rtx_memory.o(i.osRtxMemoryFree) for osRtxMemoryFree
    rtx_mempool.o(i.svcRtxMemoryPoolDelete) refers to rtx_mempool.o(i.osRtxMemoryPoolFree) for osRtxMemoryPoolFree
    rtx_mempool.o(i.svcRtxMemoryPoolDelete) refers to rtx_evr.o(i.EvrRtxMemoryPoolDestroyed) for EvrRtxMemoryPoolDestroyed
    rtx_mempool.o(i.svcRtxMemoryPoolDelete) refers to rtx_kernel.o(.data.os) for osRtxInfo
    rtx_mempool.o(i.svcRtxMemoryPoolFree) refers to rtx_evr.o(i.EvrRtxMemoryPoolError) for EvrRtxMemoryPoolError
    rtx_mempool.o(i.svcRtxMemoryPoolFree) refers to rtx_mempool.o(i.osRtxMemoryPoolFree) for osRtxMemoryPoolFree
    rtx_mempool.o(i.svcRtxMemoryPoolFree) refers to rtx_evr.o(i.EvrRtxMemoryPoolDeallocated) for EvrRtxMemoryPoolDeallocated
    rtx_mempool.o(i.svcRtxMemoryPoolFree) refers to rtx_mempool.o(i.osRtxMemoryPoolAlloc) for osRtxMemoryPoolAlloc
    rtx_mempool.o(i.svcRtxMemoryPoolFree) refers to rtx_thread.o(i.osRtxThreadListGet) for osRtxThreadListGet
    rtx_mempool.o(i.svcRtxMemoryPoolFree) refers to rtx_thread.o(i.osRtxThreadWaitExit) for osRtxThreadWaitExit
    rtx_mempool.o(i.svcRtxMemoryPoolFree) refers to rtx_evr.o(i.EvrRtxMemoryPoolAllocated) for EvrRtxMemoryPoolAllocated
    rtx_mempool.o(i.svcRtxMemoryPoolFree) refers to rtx_evr.o(i.EvrRtxMemoryPoolFreeFailed) for EvrRtxMemoryPoolFreeFailed
    rtx_mempool.o(i.svcRtxMemoryPoolGetBlockSize) refers to rtx_evr.o(i.EvrRtxMemoryPoolGetBlockSize) for EvrRtxMemoryPoolGetBlockSize
    rtx_mempool.o(i.svcRtxMemoryPoolGetCapacity) refers to rtx_evr.o(i.EvrRtxMemoryPoolGetCapacity) for EvrRtxMemoryPoolGetCapacity
    rtx_mempool.o(i.svcRtxMemoryPoolGetCount) refers to rtx_evr.o(i.EvrRtxMemoryPoolGetCount) for EvrRtxMemoryPoolGetCount
    rtx_mempool.o(i.svcRtxMemoryPoolGetName) refers to rtx_evr.o(i.EvrRtxMemoryPoolGetName) for EvrRtxMemoryPoolGetName
    rtx_mempool.o(i.svcRtxMemoryPoolGetSpace) refers to rtx_evr.o(i.EvrRtxMemoryPoolGetSpace) for EvrRtxMemoryPoolGetSpace
    rtx_mempool.o(i.svcRtxMemoryPoolNew) refers to rtx_evr.o(i.EvrRtxMemoryPoolError) for EvrRtxMemoryPoolError
    rtx_mempool.o(i.svcRtxMemoryPoolNew) refers to rtx_mempool.o(i.osRtxMemoryPoolAlloc) for osRtxMemoryPoolAlloc
    rtx_mempool.o(i.svcRtxMemoryPoolNew) refers to rtx_memory.o(i.osRtxMemoryAlloc) for osRtxMemoryAlloc
    rtx_mempool.o(i.svcRtxMemoryPoolNew) refers to rtx_mempool.o(i.osRtxMemoryPoolFree) for osRtxMemoryPoolFree
    rtx_mempool.o(i.svcRtxMemoryPoolNew) refers to rtx_memory.o(i.osRtxMemoryFree) for osRtxMemoryFree
    rtx_mempool.o(i.svcRtxMemoryPoolNew) refers to memseta.o(.text) for __aeabi_memclr
    rtx_mempool.o(i.svcRtxMemoryPoolNew) refers to rtx_mempool.o(i.osRtxMemoryPoolInit) for osRtxMemoryPoolInit
    rtx_mempool.o(i.svcRtxMemoryPoolNew) refers to rtx_evr.o(i.EvrRtxMemoryPoolCreated) for EvrRtxMemoryPoolCreated
    rtx_mempool.o(i.svcRtxMemoryPoolNew) refers to rtx_kernel.o(.data.os) for osRtxInfo
    rtx_mempool.o(i.svcRtxMemoryPoolNew) refers to rtx_mempool.o(i.osRtxMemoryPoolPostProcess) for osRtxMemoryPoolPostProcess
    rtx_msgqueue.o(i.MessageQueueGet) refers to rtx_msgqueue.o(.emb_text) for __asm___14_rtx_msgqueue_c_3fd3b50e__atomic_dec32_nz
    rtx_msgqueue.o(i.MessageQueuePut) refers to rtx_msgqueue.o(.emb_text) for __asm___14_rtx_msgqueue_c_3fd3b50e__atomic_inc32
    rtx_msgqueue.o(i.isrRtxMessageQueueGet) refers to rtx_evr.o(i.EvrRtxMessageQueueError) for EvrRtxMessageQueueError
    rtx_msgqueue.o(i.isrRtxMessageQueueGet) refers to rtx_msgqueue.o(i.MessageQueueGet) for MessageQueueGet
    rtx_msgqueue.o(i.isrRtxMessageQueueGet) refers to memcpya.o(.text) for __aeabi_memcpy
    rtx_msgqueue.o(i.isrRtxMessageQueueGet) refers to rtx_evr.o(i.EvrRtxMessageQueueRetrieved) for EvrRtxMessageQueueRetrieved
    rtx_msgqueue.o(i.isrRtxMessageQueueGet) refers to rtx_system.o(i.osRtxPostProcess) for osRtxPostProcess
    rtx_msgqueue.o(i.isrRtxMessageQueueGet) refers to rtx_evr.o(i.EvrRtxMessageQueueNotRetrieved) for EvrRtxMessageQueueNotRetrieved
    rtx_msgqueue.o(i.isrRtxMessageQueuePut) refers to rtx_evr.o(i.EvrRtxMessageQueueError) for EvrRtxMessageQueueError
    rtx_msgqueue.o(i.isrRtxMessageQueuePut) refers to rtx_mempool.o(i.osRtxMemoryPoolAlloc) for osRtxMemoryPoolAlloc
    rtx_msgqueue.o(i.isrRtxMessageQueuePut) refers to memcpya.o(.text) for __aeabi_memcpy
    rtx_msgqueue.o(i.isrRtxMessageQueuePut) refers to rtx_system.o(i.osRtxPostProcess) for osRtxPostProcess
    rtx_msgqueue.o(i.isrRtxMessageQueuePut) refers to rtx_evr.o(i.EvrRtxMessageQueueNotInserted) for EvrRtxMessageQueueNotInserted
    rtx_msgqueue.o(i.isrRtxMessageQueuePut) refers to rtx_evr.o(i.EvrRtxMessageQueueInsertPending) for EvrRtxMessageQueueInsertPending
    rtx_msgqueue.o(i.osMessageQueueDelete) refers to rtx_evr.o(i.EvrRtxMessageQueueDelete) for EvrRtxMessageQueueDelete
    rtx_msgqueue.o(i.osMessageQueueDelete) refers to rtx_msgqueue.o(i.__get_IPSR) for __get_IPSR
    rtx_msgqueue.o(i.osMessageQueueDelete) refers to rtx_msgqueue.o(i.__get_PRIMASK) for __get_PRIMASK
    rtx_msgqueue.o(i.osMessageQueueDelete) refers to rtx_msgqueue.o(i.__get_BASEPRI) for __get_BASEPRI
    rtx_msgqueue.o(i.osMessageQueueDelete) refers to rtx_evr.o(i.EvrRtxMessageQueueError) for EvrRtxMessageQueueError
    rtx_msgqueue.o(i.osMessageQueueDelete) refers to rtx_msgqueue.o(i.svcRtxMessageQueueDelete) for svcRtxMessageQueueDelete
    rtx_msgqueue.o(i.osMessageQueueGet) refers to rtx_evr.o(i.EvrRtxMessageQueueGet) for EvrRtxMessageQueueGet
    rtx_msgqueue.o(i.osMessageQueueGet) refers to rtx_msgqueue.o(i.__get_IPSR) for __get_IPSR
    rtx_msgqueue.o(i.osMessageQueueGet) refers to rtx_msgqueue.o(i.__get_PRIMASK) for __get_PRIMASK
    rtx_msgqueue.o(i.osMessageQueueGet) refers to rtx_msgqueue.o(i.__get_BASEPRI) for __get_BASEPRI
    rtx_msgqueue.o(i.osMessageQueueGet) refers to rtx_msgqueue.o(i.isrRtxMessageQueueGet) for isrRtxMessageQueueGet
    rtx_msgqueue.o(i.osMessageQueueGet) refers to rtx_msgqueue.o(i.svcRtxMessageQueueGet) for svcRtxMessageQueueGet
    rtx_msgqueue.o(i.osMessageQueueGetCapacity) refers to rtx_msgqueue.o(i.__get_IPSR) for __get_IPSR
    rtx_msgqueue.o(i.osMessageQueueGetCapacity) refers to rtx_msgqueue.o(i.__get_PRIMASK) for __get_PRIMASK
    rtx_msgqueue.o(i.osMessageQueueGetCapacity) refers to rtx_msgqueue.o(i.__get_BASEPRI) for __get_BASEPRI
    rtx_msgqueue.o(i.osMessageQueueGetCapacity) refers to rtx_msgqueue.o(i.svcRtxMessageQueueGetCapacity) for svcRtxMessageQueueGetCapacity
    rtx_msgqueue.o(i.osMessageQueueGetCount) refers to rtx_msgqueue.o(i.__get_IPSR) for __get_IPSR
    rtx_msgqueue.o(i.osMessageQueueGetCount) refers to rtx_msgqueue.o(i.__get_PRIMASK) for __get_PRIMASK
    rtx_msgqueue.o(i.osMessageQueueGetCount) refers to rtx_msgqueue.o(i.__get_BASEPRI) for __get_BASEPRI
    rtx_msgqueue.o(i.osMessageQueueGetCount) refers to rtx_msgqueue.o(i.svcRtxMessageQueueGetCount) for svcRtxMessageQueueGetCount
    rtx_msgqueue.o(i.osMessageQueueGetMsgSize) refers to rtx_msgqueue.o(i.__get_IPSR) for __get_IPSR
    rtx_msgqueue.o(i.osMessageQueueGetMsgSize) refers to rtx_msgqueue.o(i.__get_PRIMASK) for __get_PRIMASK
    rtx_msgqueue.o(i.osMessageQueueGetMsgSize) refers to rtx_msgqueue.o(i.__get_BASEPRI) for __get_BASEPRI
    rtx_msgqueue.o(i.osMessageQueueGetMsgSize) refers to rtx_msgqueue.o(i.svcRtxMessageQueueGetMsgSize) for svcRtxMessageQueueGetMsgSize
    rtx_msgqueue.o(i.osMessageQueueGetName) refers to rtx_msgqueue.o(i.__get_IPSR) for __get_IPSR
    rtx_msgqueue.o(i.osMessageQueueGetName) refers to rtx_msgqueue.o(i.__get_PRIMASK) for __get_PRIMASK
    rtx_msgqueue.o(i.osMessageQueueGetName) refers to rtx_msgqueue.o(i.__get_BASEPRI) for __get_BASEPRI
    rtx_msgqueue.o(i.osMessageQueueGetName) refers to rtx_evr.o(i.EvrRtxMessageQueueGetName) for EvrRtxMessageQueueGetName
    rtx_msgqueue.o(i.osMessageQueueGetName) refers to rtx_msgqueue.o(i.svcRtxMessageQueueGetName) for svcRtxMessageQueueGetName
    rtx_msgqueue.o(i.osMessageQueueGetSpace) refers to rtx_msgqueue.o(i.__get_IPSR) for __get_IPSR
    rtx_msgqueue.o(i.osMessageQueueGetSpace) refers to rtx_msgqueue.o(i.__get_PRIMASK) for __get_PRIMASK
    rtx_msgqueue.o(i.osMessageQueueGetSpace) refers to rtx_msgqueue.o(i.__get_BASEPRI) for __get_BASEPRI
    rtx_msgqueue.o(i.osMessageQueueGetSpace) refers to rtx_msgqueue.o(i.svcRtxMessageQueueGetSpace) for svcRtxMessageQueueGetSpace
    rtx_msgqueue.o(i.osMessageQueueNew) refers to rtx_evr.o(i.EvrRtxMessageQueueNew) for EvrRtxMessageQueueNew
    rtx_msgqueue.o(i.osMessageQueueNew) refers to rtx_msgqueue.o(i.__get_IPSR) for __get_IPSR
    rtx_msgqueue.o(i.osMessageQueueNew) refers to rtx_msgqueue.o(i.__get_PRIMASK) for __get_PRIMASK
    rtx_msgqueue.o(i.osMessageQueueNew) refers to rtx_msgqueue.o(i.__get_BASEPRI) for __get_BASEPRI
    rtx_msgqueue.o(i.osMessageQueueNew) refers to rtx_evr.o(i.EvrRtxMessageQueueError) for EvrRtxMessageQueueError
    rtx_msgqueue.o(i.osMessageQueueNew) refers to rtx_msgqueue.o(i.svcRtxMessageQueueNew) for svcRtxMessageQueueNew
    rtx_msgqueue.o(i.osMessageQueuePut) refers to rtx_evr.o(i.EvrRtxMessageQueuePut) for EvrRtxMessageQueuePut
    rtx_msgqueue.o(i.osMessageQueuePut) refers to rtx_msgqueue.o(i.__get_IPSR) for __get_IPSR
    rtx_msgqueue.o(i.osMessageQueuePut) refers to rtx_msgqueue.o(i.__get_PRIMASK) for __get_PRIMASK
    rtx_msgqueue.o(i.osMessageQueuePut) refers to rtx_msgqueue.o(i.__get_BASEPRI) for __get_BASEPRI
    rtx_msgqueue.o(i.osMessageQueuePut) refers to rtx_msgqueue.o(i.isrRtxMessageQueuePut) for isrRtxMessageQueuePut
    rtx_msgqueue.o(i.osMessageQueuePut) refers to rtx_msgqueue.o(i.svcRtxMessageQueuePut) for svcRtxMessageQueuePut
    rtx_msgqueue.o(i.osMessageQueueReset) refers to rtx_evr.o(i.EvrRtxMessageQueueReset) for EvrRtxMessageQueueReset
    rtx_msgqueue.o(i.osMessageQueueReset) refers to rtx_msgqueue.o(i.__get_IPSR) for __get_IPSR
    rtx_msgqueue.o(i.osMessageQueueReset) refers to rtx_msgqueue.o(i.__get_PRIMASK) for __get_PRIMASK
    rtx_msgqueue.o(i.osMessageQueueReset) refers to rtx_msgqueue.o(i.__get_BASEPRI) for __get_BASEPRI
    rtx_msgqueue.o(i.osMessageQueueReset) refers to rtx_evr.o(i.EvrRtxMessageQueueError) for EvrRtxMessageQueueError
    rtx_msgqueue.o(i.osMessageQueueReset) refers to rtx_msgqueue.o(i.svcRtxMessageQueueReset) for svcRtxMessageQueueReset
    rtx_msgqueue.o(i.osRtxMessageQueuePostProcess) refers to rtx_msgqueue.o(i.MessageQueueRemove) for MessageQueueRemove
    rtx_msgqueue.o(i.osRtxMessageQueuePostProcess) refers to rtx_mempool.o(i.osRtxMemoryPoolFree) for osRtxMemoryPoolFree
    rtx_msgqueue.o(i.osRtxMessageQueuePostProcess) refers to rtx_mempool.o(i.osRtxMemoryPoolAlloc) for osRtxMemoryPoolAlloc
    rtx_msgqueue.o(i.osRtxMessageQueuePostProcess) refers to rtx_thread.o(i.osRtxThreadListGet) for osRtxThreadListGet
    rtx_msgqueue.o(i.osRtxMessageQueuePostProcess) refers to rtx_thread.o(i.osRtxThreadWaitExit) for osRtxThreadWaitExit
    rtx_msgqueue.o(i.osRtxMessageQueuePostProcess) refers to rtx_thread.o(i.osRtxThreadRegPtr) for osRtxThreadRegPtr
    rtx_msgqueue.o(i.osRtxMessageQueuePostProcess) refers to memcpya.o(.text) for __aeabi_memcpy
    rtx_msgqueue.o(i.osRtxMessageQueuePostProcess) refers to rtx_msgqueue.o(i.MessageQueuePut) for MessageQueuePut
    rtx_msgqueue.o(i.osRtxMessageQueuePostProcess) refers to rtx_evr.o(i.EvrRtxMessageQueueInserted) for EvrRtxMessageQueueInserted
    rtx_msgqueue.o(i.osRtxMessageQueuePostProcess) refers to rtx_evr.o(i.EvrRtxMessageQueueRetrieved) for EvrRtxMessageQueueRetrieved
    rtx_msgqueue.o(i.svcRtxMessageQueueDelete) refers to rtx_evr.o(i.EvrRtxMessageQueueError) for EvrRtxMessageQueueError
    rtx_msgqueue.o(i.svcRtxMessageQueueDelete) refers to rtx_thread.o(i.osRtxThreadListGet) for osRtxThreadListGet
    rtx_msgqueue.o(i.svcRtxMessageQueueDelete) refers to rtx_thread.o(i.osRtxThreadWaitExit) for osRtxThreadWaitExit
    rtx_msgqueue.o(i.svcRtxMessageQueueDelete) refers to rtx_thread.o(i.osRtxThreadDispatch) for osRtxThreadDispatch
    rtx_msgqueue.o(i.svcRtxMessageQueueDelete) refers to rtx_memory.o(i.osRtxMemoryFree) for osRtxMemoryFree
    rtx_msgqueue.o(i.svcRtxMessageQueueDelete) refers to rtx_mempool.o(i.osRtxMemoryPoolFree) for osRtxMemoryPoolFree
    rtx_msgqueue.o(i.svcRtxMessageQueueDelete) refers to rtx_evr.o(i.EvrRtxMessageQueueDestroyed) for EvrRtxMessageQueueDestroyed
    rtx_msgqueue.o(i.svcRtxMessageQueueDelete) refers to rtx_kernel.o(.data.os) for osRtxInfo
    rtx_msgqueue.o(i.svcRtxMessageQueueGet) refers to rtx_evr.o(i.EvrRtxMessageQueueError) for EvrRtxMessageQueueError
    rtx_msgqueue.o(i.svcRtxMessageQueueGet) refers to rtx_msgqueue.o(i.MessageQueueGet) for MessageQueueGet
    rtx_msgqueue.o(i.svcRtxMessageQueueGet) refers to rtx_msgqueue.o(i.MessageQueueRemove) for MessageQueueRemove
    rtx_msgqueue.o(i.svcRtxMessageQueueGet) refers to memcpya.o(.text) for __aeabi_memcpy
    rtx_msgqueue.o(i.svcRtxMessageQueueGet) refers to rtx_evr.o(i.EvrRtxMessageQueueRetrieved) for EvrRtxMessageQueueRetrieved
    rtx_msgqueue.o(i.svcRtxMessageQueueGet) refers to rtx_mempool.o(i.osRtxMemoryPoolFree) for osRtxMemoryPoolFree
    rtx_msgqueue.o(i.svcRtxMessageQueueGet) refers to rtx_evr.o(i.EvrRtxMessageQueueGetPending) for EvrRtxMessageQueueGetPending
    rtx_msgqueue.o(i.svcRtxMessageQueueGet) refers to rtx_thread.o(i.osRtxThreadListPut) for osRtxThreadListPut
    rtx_msgqueue.o(i.svcRtxMessageQueueGet) refers to rtx_thread.o(i.osRtxThreadWaitEnter) for osRtxThreadWaitEnter
    rtx_msgqueue.o(i.svcRtxMessageQueueGet) refers to rtx_evr.o(i.EvrRtxMessageQueueNotRetrieved) for EvrRtxMessageQueueNotRetrieved
    rtx_msgqueue.o(i.svcRtxMessageQueueGet) refers to rtx_mempool.o(i.osRtxMemoryPoolAlloc) for osRtxMemoryPoolAlloc
    rtx_msgqueue.o(i.svcRtxMessageQueueGet) refers to rtx_thread.o(i.osRtxThreadListGet) for osRtxThreadListGet
    rtx_msgqueue.o(i.svcRtxMessageQueueGet) refers to rtx_thread.o(i.osRtxThreadWaitExit) for osRtxThreadWaitExit
    rtx_msgqueue.o(i.svcRtxMessageQueueGet) refers to rtx_thread.o(i.osRtxThreadRegPtr) for osRtxThreadRegPtr
    rtx_msgqueue.o(i.svcRtxMessageQueueGet) refers to rtx_msgqueue.o(i.MessageQueuePut) for MessageQueuePut
    rtx_msgqueue.o(i.svcRtxMessageQueueGet) refers to rtx_evr.o(i.EvrRtxMessageQueueInserted) for EvrRtxMessageQueueInserted
    rtx_msgqueue.o(i.svcRtxMessageQueueGet) refers to rtx_kernel.o(.data.os) for osRtxInfo
    rtx_msgqueue.o(i.svcRtxMessageQueueGetCapacity) refers to rtx_evr.o(i.EvrRtxMessageQueueGetCapacity) for EvrRtxMessageQueueGetCapacity
    rtx_msgqueue.o(i.svcRtxMessageQueueGetCount) refers to rtx_evr.o(i.EvrRtxMessageQueueGetCount) for EvrRtxMessageQueueGetCount
    rtx_msgqueue.o(i.svcRtxMessageQueueGetMsgSize) refers to rtx_evr.o(i.EvrRtxMessageQueueGetMsgSize) for EvrRtxMessageQueueGetMsgSize
    rtx_msgqueue.o(i.svcRtxMessageQueueGetName) refers to rtx_evr.o(i.EvrRtxMessageQueueGetName) for EvrRtxMessageQueueGetName
    rtx_msgqueue.o(i.svcRtxMessageQueueGetSpace) refers to rtx_evr.o(i.EvrRtxMessageQueueGetSpace) for EvrRtxMessageQueueGetSpace
    rtx_msgqueue.o(i.svcRtxMessageQueueNew) refers to rtx_evr.o(i.EvrRtxMessageQueueError) for EvrRtxMessageQueueError
    rtx_msgqueue.o(i.svcRtxMessageQueueNew) refers to rtx_mempool.o(i.osRtxMemoryPoolAlloc) for osRtxMemoryPoolAlloc
    rtx_msgqueue.o(i.svcRtxMessageQueueNew) refers to rtx_memory.o(i.osRtxMemoryAlloc) for osRtxMemoryAlloc
    rtx_msgqueue.o(i.svcRtxMessageQueueNew) refers to rtx_mempool.o(i.osRtxMemoryPoolFree) for osRtxMemoryPoolFree
    rtx_msgqueue.o(i.svcRtxMessageQueueNew) refers to rtx_memory.o(i.osRtxMemoryFree) for osRtxMemoryFree
    rtx_msgqueue.o(i.svcRtxMessageQueueNew) refers to memseta.o(.text) for __aeabi_memclr
    rtx_msgqueue.o(i.svcRtxMessageQueueNew) refers to rtx_mempool.o(i.osRtxMemoryPoolInit) for osRtxMemoryPoolInit
    rtx_msgqueue.o(i.svcRtxMessageQueueNew) refers to rtx_evr.o(i.EvrRtxMessageQueueCreated) for EvrRtxMessageQueueCreated
    rtx_msgqueue.o(i.svcRtxMessageQueueNew) refers to rtx_kernel.o(.data.os) for osRtxInfo
    rtx_msgqueue.o(i.svcRtxMessageQueueNew) refers to rtx_msgqueue.o(i.osRtxMessageQueuePostProcess) for osRtxMessageQueuePostProcess
    rtx_msgqueue.o(i.svcRtxMessageQueuePut) refers to rtx_evr.o(i.EvrRtxMessageQueueError) for EvrRtxMessageQueueError
    rtx_msgqueue.o(i.svcRtxMessageQueuePut) refers to rtx_evr.o(i.EvrRtxMessageQueueInserted) for EvrRtxMessageQueueInserted
    rtx_msgqueue.o(i.svcRtxMessageQueuePut) refers to rtx_thread.o(i.osRtxThreadListGet) for osRtxThreadListGet
    rtx_msgqueue.o(i.svcRtxMessageQueuePut) refers to rtx_thread.o(i.osRtxThreadWaitExit) for osRtxThreadWaitExit
    rtx_msgqueue.o(i.svcRtxMessageQueuePut) refers to rtx_thread.o(i.osRtxThreadRegPtr) for osRtxThreadRegPtr
    rtx_msgqueue.o(i.svcRtxMessageQueuePut) refers to memcpya.o(.text) for __aeabi_memcpy
    rtx_msgqueue.o(i.svcRtxMessageQueuePut) refers to rtx_evr.o(i.EvrRtxMessageQueueRetrieved) for EvrRtxMessageQueueRetrieved
    rtx_msgqueue.o(i.svcRtxMessageQueuePut) refers to rtx_mempool.o(i.osRtxMemoryPoolAlloc) for osRtxMemoryPoolAlloc
    rtx_msgqueue.o(i.svcRtxMessageQueuePut) refers to rtx_msgqueue.o(i.MessageQueuePut) for MessageQueuePut
    rtx_msgqueue.o(i.svcRtxMessageQueuePut) refers to rtx_evr.o(i.EvrRtxMessageQueuePutPending) for EvrRtxMessageQueuePutPending
    rtx_msgqueue.o(i.svcRtxMessageQueuePut) refers to rtx_thread.o(i.osRtxThreadListPut) for osRtxThreadListPut
    rtx_msgqueue.o(i.svcRtxMessageQueuePut) refers to rtx_thread.o(i.osRtxThreadWaitEnter) for osRtxThreadWaitEnter
    rtx_msgqueue.o(i.svcRtxMessageQueuePut) refers to rtx_evr.o(i.EvrRtxMessageQueueNotInserted) for EvrRtxMessageQueueNotInserted
    rtx_msgqueue.o(i.svcRtxMessageQueuePut) refers to rtx_kernel.o(.data.os) for osRtxInfo
    rtx_msgqueue.o(i.svcRtxMessageQueueReset) refers to rtx_evr.o(i.EvrRtxMessageQueueError) for EvrRtxMessageQueueError
    rtx_msgqueue.o(i.svcRtxMessageQueueReset) refers to rtx_msgqueue.o(i.MessageQueueGet) for MessageQueueGet
    rtx_msgqueue.o(i.svcRtxMessageQueueReset) refers to rtx_msgqueue.o(i.MessageQueueRemove) for MessageQueueRemove
    rtx_msgqueue.o(i.svcRtxMessageQueueReset) refers to rtx_evr.o(i.EvrRtxMessageQueueRetrieved) for EvrRtxMessageQueueRetrieved
    rtx_msgqueue.o(i.svcRtxMessageQueueReset) refers to rtx_mempool.o(i.osRtxMemoryPoolFree) for osRtxMemoryPoolFree
    rtx_msgqueue.o(i.svcRtxMessageQueueReset) refers to rtx_mempool.o(i.osRtxMemoryPoolAlloc) for osRtxMemoryPoolAlloc
    rtx_msgqueue.o(i.svcRtxMessageQueueReset) refers to rtx_thread.o(i.osRtxThreadListGet) for osRtxThreadListGet
    rtx_msgqueue.o(i.svcRtxMessageQueueReset) refers to rtx_thread.o(i.osRtxThreadWaitExit) for osRtxThreadWaitExit
    rtx_msgqueue.o(i.svcRtxMessageQueueReset) refers to rtx_thread.o(i.osRtxThreadRegPtr) for osRtxThreadRegPtr
    rtx_msgqueue.o(i.svcRtxMessageQueueReset) refers to memcpya.o(.text) for __aeabi_memcpy
    rtx_msgqueue.o(i.svcRtxMessageQueueReset) refers to rtx_msgqueue.o(i.MessageQueuePut) for MessageQueuePut
    rtx_msgqueue.o(i.svcRtxMessageQueueReset) refers to rtx_evr.o(i.EvrRtxMessageQueueInserted) for EvrRtxMessageQueueInserted
    rtx_msgqueue.o(i.svcRtxMessageQueueReset) refers to rtx_thread.o(i.osRtxThreadDispatch) for osRtxThreadDispatch
    rtx_msgqueue.o(i.svcRtxMessageQueueReset) refers to rtx_evr.o(i.EvrRtxMessageQueueResetDone) for EvrRtxMessageQueueResetDone
    rtx_mutex.o(i.osMutexAcquire) refers to rtx_evr.o(i.EvrRtxMutexAcquire) for EvrRtxMutexAcquire
    rtx_mutex.o(i.osMutexAcquire) refers to rtx_mutex.o(i.__get_IPSR) for __get_IPSR
    rtx_mutex.o(i.osMutexAcquire) refers to rtx_mutex.o(i.__get_PRIMASK) for __get_PRIMASK
    rtx_mutex.o(i.osMutexAcquire) refers to rtx_mutex.o(i.__get_BASEPRI) for __get_BASEPRI
    rtx_mutex.o(i.osMutexAcquire) refers to rtx_evr.o(i.EvrRtxMutexError) for EvrRtxMutexError
    rtx_mutex.o(i.osMutexAcquire) refers to rtx_mutex.o(i.svcRtxMutexAcquire) for svcRtxMutexAcquire
    rtx_mutex.o(i.osMutexDelete) refers to rtx_evr.o(i.EvrRtxMutexDelete) for EvrRtxMutexDelete
    rtx_mutex.o(i.osMutexDelete) refers to rtx_mutex.o(i.__get_IPSR) for __get_IPSR
    rtx_mutex.o(i.osMutexDelete) refers to rtx_mutex.o(i.__get_PRIMASK) for __get_PRIMASK
    rtx_mutex.o(i.osMutexDelete) refers to rtx_mutex.o(i.__get_BASEPRI) for __get_BASEPRI
    rtx_mutex.o(i.osMutexDelete) refers to rtx_evr.o(i.EvrRtxMutexError) for EvrRtxMutexError
    rtx_mutex.o(i.osMutexDelete) refers to rtx_mutex.o(i.svcRtxMutexDelete) for svcRtxMutexDelete
    rtx_mutex.o(i.osMutexGetName) refers to rtx_mutex.o(i.__get_IPSR) for __get_IPSR
    rtx_mutex.o(i.osMutexGetName) refers to rtx_mutex.o(i.__get_PRIMASK) for __get_PRIMASK
    rtx_mutex.o(i.osMutexGetName) refers to rtx_mutex.o(i.__get_BASEPRI) for __get_BASEPRI
    rtx_mutex.o(i.osMutexGetName) refers to rtx_evr.o(i.EvrRtxMutexGetName) for EvrRtxMutexGetName
    rtx_mutex.o(i.osMutexGetName) refers to rtx_mutex.o(i.svcRtxMutexGetName) for svcRtxMutexGetName
    rtx_mutex.o(i.osMutexGetOwner) refers to rtx_mutex.o(i.__get_IPSR) for __get_IPSR
    rtx_mutex.o(i.osMutexGetOwner) refers to rtx_mutex.o(i.__get_PRIMASK) for __get_PRIMASK
    rtx_mutex.o(i.osMutexGetOwner) refers to rtx_mutex.o(i.__get_BASEPRI) for __get_BASEPRI
    rtx_mutex.o(i.osMutexGetOwner) refers to rtx_evr.o(i.EvrRtxMutexGetOwner) for EvrRtxMutexGetOwner
    rtx_mutex.o(i.osMutexGetOwner) refers to rtx_mutex.o(i.svcRtxMutexGetOwner) for svcRtxMutexGetOwner
    rtx_mutex.o(i.osMutexNew) refers to rtx_evr.o(i.EvrRtxMutexNew) for EvrRtxMutexNew
    rtx_mutex.o(i.osMutexNew) refers to rtx_mutex.o(i.__get_IPSR) for __get_IPSR
    rtx_mutex.o(i.osMutexNew) refers to rtx_mutex.o(i.__get_PRIMASK) for __get_PRIMASK
    rtx_mutex.o(i.osMutexNew) refers to rtx_mutex.o(i.__get_BASEPRI) for __get_BASEPRI
    rtx_mutex.o(i.osMutexNew) refers to rtx_evr.o(i.EvrRtxMutexError) for EvrRtxMutexError
    rtx_mutex.o(i.osMutexNew) refers to rtx_mutex.o(i.svcRtxMutexNew) for svcRtxMutexNew
    rtx_mutex.o(i.osMutexRelease) refers to rtx_evr.o(i.EvrRtxMutexRelease) for EvrRtxMutexRelease
    rtx_mutex.o(i.osMutexRelease) refers to rtx_mutex.o(i.__get_IPSR) for __get_IPSR
    rtx_mutex.o(i.osMutexRelease) refers to rtx_mutex.o(i.__get_PRIMASK) for __get_PRIMASK
    rtx_mutex.o(i.osMutexRelease) refers to rtx_mutex.o(i.__get_BASEPRI) for __get_BASEPRI
    rtx_mutex.o(i.osMutexRelease) refers to rtx_evr.o(i.EvrRtxMutexError) for EvrRtxMutexError
    rtx_mutex.o(i.osMutexRelease) refers to rtx_mutex.o(i.svcRtxMutexRelease) for svcRtxMutexRelease
    rtx_mutex.o(i.osRtxMutexOwnerRelease) refers to rtx_evr.o(i.EvrRtxMutexReleased) for EvrRtxMutexReleased
    rtx_mutex.o(i.osRtxMutexOwnerRelease) refers to rtx_thread.o(i.osRtxThreadListGet) for osRtxThreadListGet
    rtx_mutex.o(i.osRtxMutexOwnerRelease) refers to rtx_thread.o(i.osRtxThreadWaitExit) for osRtxThreadWaitExit
    rtx_mutex.o(i.osRtxMutexOwnerRelease) refers to rtx_evr.o(i.EvrRtxMutexAcquired) for EvrRtxMutexAcquired
    rtx_mutex.o(i.svcRtxMutexAcquire) refers to rtx_evr.o(i.EvrRtxMutexError) for EvrRtxMutexError
    rtx_mutex.o(i.svcRtxMutexAcquire) refers to rtx_evr.o(i.EvrRtxMutexAcquired) for EvrRtxMutexAcquired
    rtx_mutex.o(i.svcRtxMutexAcquire) refers to rtx_thread.o(i.osRtxThreadListSort) for osRtxThreadListSort
    rtx_mutex.o(i.svcRtxMutexAcquire) refers to rtx_evr.o(i.EvrRtxMutexAcquirePending) for EvrRtxMutexAcquirePending
    rtx_mutex.o(i.svcRtxMutexAcquire) refers to rtx_thread.o(i.osRtxThreadListPut) for osRtxThreadListPut
    rtx_mutex.o(i.svcRtxMutexAcquire) refers to rtx_thread.o(i.osRtxThreadWaitEnter) for osRtxThreadWaitEnter
    rtx_mutex.o(i.svcRtxMutexAcquire) refers to rtx_evr.o(i.EvrRtxMutexNotAcquired) for EvrRtxMutexNotAcquired
    rtx_mutex.o(i.svcRtxMutexAcquire) refers to rtx_kernel.o(.data.os) for osRtxInfo
    rtx_mutex.o(i.svcRtxMutexDelete) refers to rtx_evr.o(i.EvrRtxMutexError) for EvrRtxMutexError
    rtx_mutex.o(i.svcRtxMutexDelete) refers to rtx_thread.o(i.osRtxThreadListSort) for osRtxThreadListSort
    rtx_mutex.o(i.svcRtxMutexDelete) refers to rtx_thread.o(i.osRtxThreadListGet) for osRtxThreadListGet
    rtx_mutex.o(i.svcRtxMutexDelete) refers to rtx_thread.o(i.osRtxThreadWaitExit) for osRtxThreadWaitExit
    rtx_mutex.o(i.svcRtxMutexDelete) refers to rtx_thread.o(i.osRtxThreadDispatch) for osRtxThreadDispatch
    rtx_mutex.o(i.svcRtxMutexDelete) refers to rtx_mempool.o(i.osRtxMemoryPoolFree) for osRtxMemoryPoolFree
    rtx_mutex.o(i.svcRtxMutexDelete) refers to rtx_memory.o(i.osRtxMemoryFree) for osRtxMemoryFree
    rtx_mutex.o(i.svcRtxMutexDelete) refers to rtx_evr.o(i.EvrRtxMutexDestroyed) for EvrRtxMutexDestroyed
    rtx_mutex.o(i.svcRtxMutexDelete) refers to rtx_kernel.o(.data.os) for osRtxInfo
    rtx_mutex.o(i.svcRtxMutexGetName) refers to rtx_evr.o(i.EvrRtxMutexGetName) for EvrRtxMutexGetName
    rtx_mutex.o(i.svcRtxMutexGetOwner) refers to rtx_evr.o(i.EvrRtxMutexGetOwner) for EvrRtxMutexGetOwner
    rtx_mutex.o(i.svcRtxMutexNew) refers to rtx_evr.o(i.EvrRtxMutexError) for EvrRtxMutexError
    rtx_mutex.o(i.svcRtxMutexNew) refers to rtx_mempool.o(i.osRtxMemoryPoolAlloc) for osRtxMemoryPoolAlloc
    rtx_mutex.o(i.svcRtxMutexNew) refers to rtx_memory.o(i.osRtxMemoryAlloc) for osRtxMemoryAlloc
    rtx_mutex.o(i.svcRtxMutexNew) refers to rtx_evr.o(i.EvrRtxMutexCreated) for EvrRtxMutexCreated
    rtx_mutex.o(i.svcRtxMutexNew) refers to rtx_kernel.o(.data.os) for osRtxInfo
    rtx_mutex.o(i.svcRtxMutexRelease) refers to rtx_evr.o(i.EvrRtxMutexError) for EvrRtxMutexError
    rtx_mutex.o(i.svcRtxMutexRelease) refers to rtx_evr.o(i.EvrRtxMutexReleased) for EvrRtxMutexReleased
    rtx_mutex.o(i.svcRtxMutexRelease) refers to rtx_thread.o(i.osRtxThreadListGet) for osRtxThreadListGet
    rtx_mutex.o(i.svcRtxMutexRelease) refers to rtx_thread.o(i.osRtxThreadWaitExit) for osRtxThreadWaitExit
    rtx_mutex.o(i.svcRtxMutexRelease) refers to rtx_evr.o(i.EvrRtxMutexAcquired) for EvrRtxMutexAcquired
    rtx_mutex.o(i.svcRtxMutexRelease) refers to rtx_thread.o(i.osRtxThreadDispatch) for osRtxThreadDispatch
    rtx_mutex.o(i.svcRtxMutexRelease) refers to rtx_kernel.o(.data.os) for osRtxInfo
    rtx_semaphore.o(i.SemaphoreTokenDecrement) refers to rtx_semaphore.o(.emb_text) for __asm___15_rtx_semaphore_c_eca73427__atomic_dec16_nz
    rtx_semaphore.o(i.SemaphoreTokenIncrement) refers to rtx_semaphore.o(.emb_text) for __asm___15_rtx_semaphore_c_eca73427__atomic_inc16_lt
    rtx_semaphore.o(i.osRtxSemaphorePostProcess) refers to rtx_semaphore.o(i.SemaphoreTokenDecrement) for SemaphoreTokenDecrement
    rtx_semaphore.o(i.osRtxSemaphorePostProcess) refers to rtx_thread.o(i.osRtxThreadListGet) for osRtxThreadListGet
    rtx_semaphore.o(i.osRtxSemaphorePostProcess) refers to rtx_thread.o(i.osRtxThreadWaitExit) for osRtxThreadWaitExit
    rtx_semaphore.o(i.osRtxSemaphorePostProcess) refers to rtx_evr.o(i.EvrRtxSemaphoreAcquired) for EvrRtxSemaphoreAcquired
    rtx_semaphore.o(i.osSemaphoreAcquire) refers to rtx_evr.o(i.EvrRtxSemaphoreAcquire) for EvrRtxSemaphoreAcquire
    rtx_semaphore.o(i.osSemaphoreAcquire) refers to rtx_semaphore.o(i.__get_IPSR) for __get_IPSR
    rtx_semaphore.o(i.osSemaphoreAcquire) refers to rtx_semaphore.o(i.__get_PRIMASK) for __get_PRIMASK
    rtx_semaphore.o(i.osSemaphoreAcquire) refers to rtx_semaphore.o(i.__get_BASEPRI) for __get_BASEPRI
    rtx_semaphore.o(i.osSemaphoreAcquire) refers to rtx_evr.o(i.EvrRtxSemaphoreError) for EvrRtxSemaphoreError
    rtx_semaphore.o(i.osSemaphoreAcquire) refers to rtx_semaphore.o(i.SemaphoreTokenDecrement) for SemaphoreTokenDecrement
    rtx_semaphore.o(i.osSemaphoreAcquire) refers to rtx_evr.o(i.EvrRtxSemaphoreNotAcquired) for EvrRtxSemaphoreNotAcquired
    rtx_semaphore.o(i.osSemaphoreAcquire) refers to rtx_evr.o(i.EvrRtxSemaphoreAcquired) for EvrRtxSemaphoreAcquired
    rtx_semaphore.o(i.osSemaphoreAcquire) refers to rtx_semaphore.o(i.svcRtxSemaphoreAcquire) for svcRtxSemaphoreAcquire
    rtx_semaphore.o(i.osSemaphoreDelete) refers to rtx_evr.o(i.EvrRtxSemaphoreDelete) for EvrRtxSemaphoreDelete
    rtx_semaphore.o(i.osSemaphoreDelete) refers to rtx_semaphore.o(i.__get_IPSR) for __get_IPSR
    rtx_semaphore.o(i.osSemaphoreDelete) refers to rtx_semaphore.o(i.__get_PRIMASK) for __get_PRIMASK
    rtx_semaphore.o(i.osSemaphoreDelete) refers to rtx_semaphore.o(i.__get_BASEPRI) for __get_BASEPRI
    rtx_semaphore.o(i.osSemaphoreDelete) refers to rtx_evr.o(i.EvrRtxSemaphoreError) for EvrRtxSemaphoreError
    rtx_semaphore.o(i.osSemaphoreDelete) refers to rtx_semaphore.o(i.svcRtxSemaphoreDelete) for svcRtxSemaphoreDelete
    rtx_semaphore.o(i.osSemaphoreGetCount) refers to rtx_semaphore.o(i.__get_IPSR) for __get_IPSR
    rtx_semaphore.o(i.osSemaphoreGetCount) refers to rtx_semaphore.o(i.__get_PRIMASK) for __get_PRIMASK
    rtx_semaphore.o(i.osSemaphoreGetCount) refers to rtx_semaphore.o(i.__get_BASEPRI) for __get_BASEPRI
    rtx_semaphore.o(i.osSemaphoreGetCount) refers to rtx_semaphore.o(i.svcRtxSemaphoreGetCount) for svcRtxSemaphoreGetCount
    rtx_semaphore.o(i.osSemaphoreGetName) refers to rtx_semaphore.o(i.__get_IPSR) for __get_IPSR
    rtx_semaphore.o(i.osSemaphoreGetName) refers to rtx_semaphore.o(i.__get_PRIMASK) for __get_PRIMASK
    rtx_semaphore.o(i.osSemaphoreGetName) refers to rtx_semaphore.o(i.__get_BASEPRI) for __get_BASEPRI
    rtx_semaphore.o(i.osSemaphoreGetName) refers to rtx_evr.o(i.EvrRtxSemaphoreGetName) for EvrRtxSemaphoreGetName
    rtx_semaphore.o(i.osSemaphoreGetName) refers to rtx_semaphore.o(i.svcRtxSemaphoreGetName) for svcRtxSemaphoreGetName
    rtx_semaphore.o(i.osSemaphoreNew) refers to rtx_evr.o(i.EvrRtxSemaphoreNew) for EvrRtxSemaphoreNew
    rtx_semaphore.o(i.osSemaphoreNew) refers to rtx_semaphore.o(i.__get_IPSR) for __get_IPSR
    rtx_semaphore.o(i.osSemaphoreNew) refers to rtx_semaphore.o(i.__get_PRIMASK) for __get_PRIMASK
    rtx_semaphore.o(i.osSemaphoreNew) refers to rtx_semaphore.o(i.__get_BASEPRI) for __get_BASEPRI
    rtx_semaphore.o(i.osSemaphoreNew) refers to rtx_evr.o(i.EvrRtxSemaphoreError) for EvrRtxSemaphoreError
    rtx_semaphore.o(i.osSemaphoreNew) refers to rtx_semaphore.o(i.svcRtxSemaphoreNew) for svcRtxSemaphoreNew
    rtx_semaphore.o(i.osSemaphoreRelease) refers to rtx_evr.o(i.EvrRtxSemaphoreRelease) for EvrRtxSemaphoreRelease
    rtx_semaphore.o(i.osSemaphoreRelease) refers to rtx_semaphore.o(i.__get_IPSR) for __get_IPSR
    rtx_semaphore.o(i.osSemaphoreRelease) refers to rtx_semaphore.o(i.__get_PRIMASK) for __get_PRIMASK
    rtx_semaphore.o(i.osSemaphoreRelease) refers to rtx_semaphore.o(i.__get_BASEPRI) for __get_BASEPRI
    rtx_semaphore.o(i.osSemaphoreRelease) refers to rtx_evr.o(i.EvrRtxSemaphoreError) for EvrRtxSemaphoreError
    rtx_semaphore.o(i.osSemaphoreRelease) refers to rtx_semaphore.o(i.SemaphoreTokenIncrement) for SemaphoreTokenIncrement
    rtx_semaphore.o(i.osSemaphoreRelease) refers to rtx_system.o(i.osRtxPostProcess) for osRtxPostProcess
    rtx_semaphore.o(i.osSemaphoreRelease) refers to rtx_evr.o(i.EvrRtxSemaphoreReleased) for EvrRtxSemaphoreReleased
    rtx_semaphore.o(i.osSemaphoreRelease) refers to rtx_semaphore.o(i.svcRtxSemaphoreRelease) for svcRtxSemaphoreRelease
    rtx_semaphore.o(i.svcRtxSemaphoreAcquire) refers to rtx_evr.o(i.EvrRtxSemaphoreError) for EvrRtxSemaphoreError
    rtx_semaphore.o(i.svcRtxSemaphoreAcquire) refers to rtx_semaphore.o(i.SemaphoreTokenDecrement) for SemaphoreTokenDecrement
    rtx_semaphore.o(i.svcRtxSemaphoreAcquire) refers to rtx_evr.o(i.EvrRtxSemaphoreAcquirePending) for EvrRtxSemaphoreAcquirePending
    rtx_semaphore.o(i.svcRtxSemaphoreAcquire) refers to rtx_thread.o(i.osRtxThreadListPut) for osRtxThreadListPut
    rtx_semaphore.o(i.svcRtxSemaphoreAcquire) refers to rtx_thread.o(i.osRtxThreadWaitEnter) for osRtxThreadWaitEnter
    rtx_semaphore.o(i.svcRtxSemaphoreAcquire) refers to rtx_evr.o(i.EvrRtxSemaphoreNotAcquired) for EvrRtxSemaphoreNotAcquired
    rtx_semaphore.o(i.svcRtxSemaphoreAcquire) refers to rtx_evr.o(i.EvrRtxSemaphoreAcquired) for EvrRtxSemaphoreAcquired
    rtx_semaphore.o(i.svcRtxSemaphoreAcquire) refers to rtx_kernel.o(.data.os) for osRtxInfo
    rtx_semaphore.o(i.svcRtxSemaphoreDelete) refers to rtx_evr.o(i.EvrRtxSemaphoreError) for EvrRtxSemaphoreError
    rtx_semaphore.o(i.svcRtxSemaphoreDelete) refers to rtx_thread.o(i.osRtxThreadListGet) for osRtxThreadListGet
    rtx_semaphore.o(i.svcRtxSemaphoreDelete) refers to rtx_thread.o(i.osRtxThreadWaitExit) for osRtxThreadWaitExit
    rtx_semaphore.o(i.svcRtxSemaphoreDelete) refers to rtx_thread.o(i.osRtxThreadDispatch) for osRtxThreadDispatch
    rtx_semaphore.o(i.svcRtxSemaphoreDelete) refers to rtx_mempool.o(i.osRtxMemoryPoolFree) for osRtxMemoryPoolFree
    rtx_semaphore.o(i.svcRtxSemaphoreDelete) refers to rtx_memory.o(i.osRtxMemoryFree) for osRtxMemoryFree
    rtx_semaphore.o(i.svcRtxSemaphoreDelete) refers to rtx_evr.o(i.EvrRtxSemaphoreDestroyed) for EvrRtxSemaphoreDestroyed
    rtx_semaphore.o(i.svcRtxSemaphoreDelete) refers to rtx_kernel.o(.data.os) for osRtxInfo
    rtx_semaphore.o(i.svcRtxSemaphoreGetCount) refers to rtx_evr.o(i.EvrRtxSemaphoreGetCount) for EvrRtxSemaphoreGetCount
    rtx_semaphore.o(i.svcRtxSemaphoreGetName) refers to rtx_evr.o(i.EvrRtxSemaphoreGetName) for EvrRtxSemaphoreGetName
    rtx_semaphore.o(i.svcRtxSemaphoreNew) refers to rtx_evr.o(i.EvrRtxSemaphoreError) for EvrRtxSemaphoreError
    rtx_semaphore.o(i.svcRtxSemaphoreNew) refers to rtx_mempool.o(i.osRtxMemoryPoolAlloc) for osRtxMemoryPoolAlloc
    rtx_semaphore.o(i.svcRtxSemaphoreNew) refers to rtx_memory.o(i.osRtxMemoryAlloc) for osRtxMemoryAlloc
    rtx_semaphore.o(i.svcRtxSemaphoreNew) refers to rtx_evr.o(i.EvrRtxSemaphoreCreated) for EvrRtxSemaphoreCreated
    rtx_semaphore.o(i.svcRtxSemaphoreNew) refers to rtx_kernel.o(.data.os) for osRtxInfo
    rtx_semaphore.o(i.svcRtxSemaphoreNew) refers to rtx_semaphore.o(i.osRtxSemaphorePostProcess) for osRtxSemaphorePostProcess
    rtx_semaphore.o(i.svcRtxSemaphoreRelease) refers to rtx_evr.o(i.EvrRtxSemaphoreError) for EvrRtxSemaphoreError
    rtx_semaphore.o(i.svcRtxSemaphoreRelease) refers to rtx_evr.o(i.EvrRtxSemaphoreReleased) for EvrRtxSemaphoreReleased
    rtx_semaphore.o(i.svcRtxSemaphoreRelease) refers to rtx_thread.o(i.osRtxThreadListGet) for osRtxThreadListGet
    rtx_semaphore.o(i.svcRtxSemaphoreRelease) refers to rtx_thread.o(i.osRtxThreadWaitExit) for osRtxThreadWaitExit
    rtx_semaphore.o(i.svcRtxSemaphoreRelease) refers to rtx_evr.o(i.EvrRtxSemaphoreAcquired) for EvrRtxSemaphoreAcquired
    rtx_semaphore.o(i.svcRtxSemaphoreRelease) refers to rtx_semaphore.o(i.SemaphoreTokenIncrement) for SemaphoreTokenIncrement
    rtx_system.o(i.isr_queue_get) refers to rtx_system.o(.emb_text) for __asm___12_rtx_system_c_024f2f18__atomic_dec16_nz
    rtx_system.o(i.isr_queue_get) refers to rtx_kernel.o(.data.os) for osRtxInfo
    rtx_system.o(i.isr_queue_put) refers to rtx_system.o(.emb_text) for __asm___12_rtx_system_c_024f2f18__atomic_inc16_lt
    rtx_system.o(i.isr_queue_put) refers to rtx_kernel.o(.data.os) for osRtxInfo
    rtx_system.o(i.osRtxPendSV_Handler) refers to rtx_system.o(i.isr_queue_get) for isr_queue_get
    rtx_system.o(i.osRtxPendSV_Handler) refers to rtx_thread.o(i.osRtxThreadDispatch) for osRtxThreadDispatch
    rtx_system.o(i.osRtxPendSV_Handler) refers to rtx_kernel.o(.data.os) for osRtxInfo
    rtx_system.o(i.osRtxPostProcess) refers to rtx_system.o(i.isr_queue_put) for isr_queue_put
    rtx_system.o(i.osRtxPostProcess) refers to rtx_config.o(i.osRtxErrorNotify) for osRtxErrorNotify
    rtx_system.o(i.osRtxPostProcess) refers to rtx_kernel.o(.data.os) for osRtxInfo
    rtx_system.o(i.osRtxTick_Handler) refers to os_systick.o(i.OS_Tick_AcknowledgeIRQ) for OS_Tick_AcknowledgeIRQ
    rtx_system.o(i.osRtxTick_Handler) refers to rtx_thread.o(i.osRtxThreadDelayTick) for osRtxThreadDelayTick
    rtx_system.o(i.osRtxTick_Handler) refers to rtx_thread.o(i.osRtxThreadDispatch) for osRtxThreadDispatch
    rtx_system.o(i.osRtxTick_Handler) refers to rtx_thread.o(i.osRtxThreadListRemove) for osRtxThreadListRemove
    rtx_system.o(i.osRtxTick_Handler) refers to rtx_thread.o(i.osRtxThreadReadyPut) for osRtxThreadReadyPut
    rtx_system.o(i.osRtxTick_Handler) refers to rtx_thread.o(i.osRtxThreadSwitch) for osRtxThreadSwitch
    rtx_system.o(i.osRtxTick_Handler) refers to rtx_kernel.o(.data.os) for osRtxInfo
    rtx_thread.o(i.ThreadFlagsCheck) refers to rtx_thread.o(.emb_text) for __asm___12_rtx_thread_c_add96be5__atomic_chk32_all
    rtx_thread.o(i.ThreadFlagsClear) refers to rtx_thread.o(.emb_text) for __asm___12_rtx_thread_c_add96be5__atomic_clr32
    rtx_thread.o(i.ThreadFlagsSet) refers to rtx_thread.o(.emb_text) for __asm___12_rtx_thread_c_add96be5__atomic_set32
    rtx_thread.o(i.osRtxKernelGetState) refers to rtx_kernel.o(.data.os) for osRtxInfo
    rtx_thread.o(i.osRtxThreadBlock) refers to rtx_kernel.o(.data.os) for osRtxInfo
    rtx_thread.o(i.osRtxThreadDelayInsert) refers to rtx_kernel.o(.data.os) for osRtxInfo
    rtx_thread.o(i.osRtxThreadDelayRemove) refers to rtx_kernel.o(.data.os) for osRtxInfo
    rtx_thread.o(i.osRtxThreadDelayTick) refers to rtx_evr.o(i.EvrRtxThreadDelayCompleted) for EvrRtxThreadDelayCompleted
    rtx_thread.o(i.osRtxThreadDelayTick) refers to rtx_evr.o(i.EvrRtxThreadFlagsWaitTimeout) for EvrRtxThreadFlagsWaitTimeout
    rtx_thread.o(i.osRtxThreadDelayTick) refers to rtx_thread.o(i.osRtxThreadListRoot) for osRtxThreadListRoot
    rtx_thread.o(i.osRtxThreadDelayTick) refers to rtx_evr.o(i.EvrRtxEventFlagsWaitTimeout) for EvrRtxEventFlagsWaitTimeout
    rtx_thread.o(i.osRtxThreadDelayTick) refers to rtx_evr.o(i.EvrRtxMutexAcquireTimeout) for EvrRtxMutexAcquireTimeout
    rtx_thread.o(i.osRtxThreadDelayTick) refers to rtx_evr.o(i.EvrRtxSemaphoreAcquireTimeout) for EvrRtxSemaphoreAcquireTimeout
    rtx_thread.o(i.osRtxThreadDelayTick) refers to rtx_evr.o(i.EvrRtxMemoryPoolAllocTimeout) for EvrRtxMemoryPoolAllocTimeout
    rtx_thread.o(i.osRtxThreadDelayTick) refers to rtx_evr.o(i.EvrRtxMessageQueueGetTimeout) for EvrRtxMessageQueueGetTimeout
    rtx_thread.o(i.osRtxThreadDelayTick) refers to rtx_evr.o(i.EvrRtxMessageQueuePutTimeout) for EvrRtxMessageQueuePutTimeout
    rtx_thread.o(i.osRtxThreadDelayTick) refers to rtx_thread.o(i.osRtxThreadRegPtr) for osRtxThreadRegPtr
    rtx_thread.o(i.osRtxThreadDelayTick) refers to rtx_evr.o(i.EvrRtxThreadUnblocked) for EvrRtxThreadUnblocked
    rtx_thread.o(i.osRtxThreadDelayTick) refers to rtx_thread.o(i.osRtxThreadListRemove) for osRtxThreadListRemove
    rtx_thread.o(i.osRtxThreadDelayTick) refers to rtx_thread.o(i.osRtxThreadReadyPut) for osRtxThreadReadyPut
    rtx_thread.o(i.osRtxThreadDelayTick) refers to rtx_kernel.o(.data.os) for osRtxInfo
    rtx_thread.o(i.osRtxThreadDispatch) refers to rtx_thread.o(i.osRtxKernelGetState) for osRtxKernelGetState
    rtx_thread.o(i.osRtxThreadDispatch) refers to rtx_thread.o(i.osRtxThreadGetRunning) for osRtxThreadGetRunning
    rtx_thread.o(i.osRtxThreadDispatch) refers to rtx_thread.o(i.osRtxThreadListRemove) for osRtxThreadListRemove
    rtx_thread.o(i.osRtxThreadDispatch) refers to rtx_thread.o(i.osRtxThreadBlock) for osRtxThreadBlock
    rtx_thread.o(i.osRtxThreadDispatch) refers to rtx_thread.o(i.osRtxThreadSwitch) for osRtxThreadSwitch
    rtx_thread.o(i.osRtxThreadDispatch) refers to rtx_thread.o(i.osRtxThreadReadyPut) for osRtxThreadReadyPut
    rtx_thread.o(i.osRtxThreadDispatch) refers to rtx_kernel.o(.data.os) for osRtxInfo
    rtx_thread.o(i.osRtxThreadFree) refers to rtx_mempool.o(i.osRtxMemoryPoolFree) for osRtxMemoryPoolFree
    rtx_thread.o(i.osRtxThreadFree) refers to rtx_memory.o(i.osRtxMemoryFree) for osRtxMemoryFree
    rtx_thread.o(i.osRtxThreadFree) refers to rtx_kernel.o(.data.os) for osRtxInfo
    rtx_thread.o(i.osRtxThreadGetRunning) refers to rtx_kernel.o(.data.os) for osRtxInfo
    rtx_thread.o(i.osRtxThreadListSort) refers to rtx_thread.o(i.osRtxThreadListRemove) for osRtxThreadListRemove
    rtx_thread.o(i.osRtxThreadListSort) refers to rtx_thread.o(i.osRtxThreadListPut) for osRtxThreadListPut
    rtx_thread.o(i.osRtxThreadPostProcess) refers to rtx_thread.o(i.ThreadFlagsCheck) for ThreadFlagsCheck
    rtx_thread.o(i.osRtxThreadPostProcess) refers to rtx_thread.o(i.osRtxThreadWaitExit) for osRtxThreadWaitExit
    rtx_thread.o(i.osRtxThreadPostProcess) refers to rtx_evr.o(i.EvrRtxThreadFlagsWaitCompleted) for EvrRtxThreadFlagsWaitCompleted
    rtx_thread.o(i.osRtxThreadReadyPut) refers to rtx_thread.o(i.osRtxThreadListPut) for osRtxThreadListPut
    rtx_thread.o(i.osRtxThreadReadyPut) refers to rtx_kernel.o(.data.os) for osRtxInfo
    rtx_thread.o(i.osRtxThreadSetRunning) refers to rtx_kernel.o(.data.os) for osRtxInfo
    rtx_thread.o(i.osRtxThreadStackCheck) refers to rtx_thread.o(i.osRtxThreadGetRunning) for osRtxThreadGetRunning
    rtx_thread.o(i.osRtxThreadStackCheck) refers to rtx_config.o(i.osRtxErrorNotify) for osRtxErrorNotify
    rtx_thread.o(i.osRtxThreadSwitch) refers to rtx_thread.o(i.osRtxThreadStackCheck) for osRtxThreadStackCheck
    rtx_thread.o(i.osRtxThreadSwitch) refers to rtx_evr.o(i.EvrRtxThreadSwitch) for EvrRtxThreadSwitch
    rtx_thread.o(i.osRtxThreadSwitch) refers to rtx_kernel.o(.data.os) for osRtxInfo
    rtx_thread.o(i.osRtxThreadWaitEnter) refers to rtx_thread.o(i.osRtxThreadGetRunning) for osRtxThreadGetRunning
    rtx_thread.o(i.osRtxThreadWaitEnter) refers to rtx_thread.o(i.osRtxKernelGetState) for osRtxKernelGetState
    rtx_thread.o(i.osRtxThreadWaitEnter) refers to rtx_thread.o(i.osRtxThreadListRemove) for osRtxThreadListRemove
    rtx_thread.o(i.osRtxThreadWaitEnter) refers to rtx_evr.o(i.EvrRtxThreadBlocked) for EvrRtxThreadBlocked
    rtx_thread.o(i.osRtxThreadWaitEnter) refers to rtx_thread.o(i.osRtxThreadDelayInsert) for osRtxThreadDelayInsert
    rtx_thread.o(i.osRtxThreadWaitEnter) refers to rtx_thread.o(i.osRtxThreadListGet) for osRtxThreadListGet
    rtx_thread.o(i.osRtxThreadWaitEnter) refers to rtx_thread.o(i.osRtxThreadSwitch) for osRtxThreadSwitch
    rtx_thread.o(i.osRtxThreadWaitEnter) refers to rtx_kernel.o(.data.os) for osRtxInfo
    rtx_thread.o(i.osRtxThreadWaitExit) refers to rtx_evr.o(i.EvrRtxThreadUnblocked) for EvrRtxThreadUnblocked
    rtx_thread.o(i.osRtxThreadWaitExit) refers to rtx_thread.o(i.osRtxThreadRegPtr) for osRtxThreadRegPtr
    rtx_thread.o(i.osRtxThreadWaitExit) refers to rtx_thread.o(i.osRtxThreadDelayRemove) for osRtxThreadDelayRemove
    rtx_thread.o(i.osRtxThreadWaitExit) refers to rtx_thread.o(i.osRtxThreadDispatch) for osRtxThreadDispatch
    rtx_thread.o(i.osRtxThreadWaitExit) refers to rtx_thread.o(i.osRtxThreadReadyPut) for osRtxThreadReadyPut
    rtx_thread.o(i.osThreadDetach) refers to rtx_evr.o(i.EvrRtxThreadDetach) for EvrRtxThreadDetach
    rtx_thread.o(i.osThreadDetach) refers to rtx_thread.o(i.__get_IPSR) for __get_IPSR
    rtx_thread.o(i.osThreadDetach) refers to rtx_thread.o(i.__get_PRIMASK) for __get_PRIMASK
    rtx_thread.o(i.osThreadDetach) refers to rtx_thread.o(i.__get_BASEPRI) for __get_BASEPRI
    rtx_thread.o(i.osThreadDetach) refers to rtx_evr.o(i.EvrRtxThreadError) for EvrRtxThreadError
    rtx_thread.o(i.osThreadDetach) refers to rtx_thread.o(i.svcRtxThreadDetach) for svcRtxThreadDetach
    rtx_thread.o(i.osThreadEnumerate) refers to rtx_thread.o(i.__get_IPSR) for __get_IPSR
    rtx_thread.o(i.osThreadEnumerate) refers to rtx_thread.o(i.__get_PRIMASK) for __get_PRIMASK
    rtx_thread.o(i.osThreadEnumerate) refers to rtx_thread.o(i.__get_BASEPRI) for __get_BASEPRI
    rtx_thread.o(i.osThreadEnumerate) refers to rtx_evr.o(i.EvrRtxThreadEnumerate) for EvrRtxThreadEnumerate
    rtx_thread.o(i.osThreadEnumerate) refers to rtx_thread.o(i.svcRtxThreadEnumerate) for svcRtxThreadEnumerate
    rtx_thread.o(i.osThreadExit) refers to rtx_evr.o(i.EvrRtxThreadExit) for EvrRtxThreadExit
    rtx_thread.o(i.osThreadExit) refers to rtx_evr.o(i.EvrRtxThreadError) for EvrRtxThreadError
    rtx_thread.o(i.osThreadExit) refers to rtx_thread.o(i.svcRtxThreadExit) for svcRtxThreadExit
    rtx_thread.o(i.osThreadFlagsClear) refers to rtx_evr.o(i.EvrRtxThreadFlagsClear) for EvrRtxThreadFlagsClear
    rtx_thread.o(i.osThreadFlagsClear) refers to rtx_thread.o(i.__get_IPSR) for __get_IPSR
    rtx_thread.o(i.osThreadFlagsClear) refers to rtx_thread.o(i.__get_PRIMASK) for __get_PRIMASK
    rtx_thread.o(i.osThreadFlagsClear) refers to rtx_thread.o(i.__get_BASEPRI) for __get_BASEPRI
    rtx_thread.o(i.osThreadFlagsClear) refers to rtx_evr.o(i.EvrRtxThreadError) for EvrRtxThreadError
    rtx_thread.o(i.osThreadFlagsClear) refers to rtx_thread.o(i.svcRtxThreadFlagsClear) for svcRtxThreadFlagsClear
    rtx_thread.o(i.osThreadFlagsGet) refers to rtx_thread.o(i.__get_IPSR) for __get_IPSR
    rtx_thread.o(i.osThreadFlagsGet) refers to rtx_thread.o(i.__get_PRIMASK) for __get_PRIMASK
    rtx_thread.o(i.osThreadFlagsGet) refers to rtx_thread.o(i.__get_BASEPRI) for __get_BASEPRI
    rtx_thread.o(i.osThreadFlagsGet) refers to rtx_evr.o(i.EvrRtxThreadFlagsGet) for EvrRtxThreadFlagsGet
    rtx_thread.o(i.osThreadFlagsGet) refers to rtx_thread.o(i.svcRtxThreadFlagsGet) for svcRtxThreadFlagsGet
    rtx_thread.o(i.osThreadFlagsSet) refers to rtx_evr.o(i.EvrRtxThreadFlagsSet) for EvrRtxThreadFlagsSet
    rtx_thread.o(i.osThreadFlagsSet) refers to rtx_thread.o(i.__get_IPSR) for __get_IPSR
    rtx_thread.o(i.osThreadFlagsSet) refers to rtx_thread.o(i.__get_PRIMASK) for __get_PRIMASK
    rtx_thread.o(i.osThreadFlagsSet) refers to rtx_thread.o(i.__get_BASEPRI) for __get_BASEPRI
    rtx_thread.o(i.osThreadFlagsSet) refers to rtx_evr.o(i.EvrRtxThreadError) for EvrRtxThreadError
    rtx_thread.o(i.osThreadFlagsSet) refers to rtx_thread.o(i.ThreadFlagsSet) for ThreadFlagsSet
    rtx_thread.o(i.osThreadFlagsSet) refers to rtx_system.o(i.osRtxPostProcess) for osRtxPostProcess
    rtx_thread.o(i.osThreadFlagsSet) refers to rtx_evr.o(i.EvrRtxThreadFlagsSetDone) for EvrRtxThreadFlagsSetDone
    rtx_thread.o(i.osThreadFlagsSet) refers to rtx_thread.o(i.svcRtxThreadFlagsSet) for svcRtxThreadFlagsSet
    rtx_thread.o(i.osThreadFlagsWait) refers to rtx_evr.o(i.EvrRtxThreadFlagsWait) for EvrRtxThreadFlagsWait
    rtx_thread.o(i.osThreadFlagsWait) refers to rtx_thread.o(i.__get_IPSR) for __get_IPSR
    rtx_thread.o(i.osThreadFlagsWait) refers to rtx_thread.o(i.__get_PRIMASK) for __get_PRIMASK
    rtx_thread.o(i.osThreadFlagsWait) refers to rtx_thread.o(i.__get_BASEPRI) for __get_BASEPRI
    rtx_thread.o(i.osThreadFlagsWait) refers to rtx_evr.o(i.EvrRtxThreadError) for EvrRtxThreadError
    rtx_thread.o(i.osThreadFlagsWait) refers to rtx_thread.o(i.svcRtxThreadFlagsWait) for svcRtxThreadFlagsWait
    rtx_thread.o(i.osThreadGetCount) refers to rtx_thread.o(i.__get_IPSR) for __get_IPSR
    rtx_thread.o(i.osThreadGetCount) refers to rtx_thread.o(i.__get_PRIMASK) for __get_PRIMASK
    rtx_thread.o(i.osThreadGetCount) refers to rtx_thread.o(i.__get_BASEPRI) for __get_BASEPRI
    rtx_thread.o(i.osThreadGetCount) refers to rtx_evr.o(i.EvrRtxThreadGetCount) for EvrRtxThreadGetCount
    rtx_thread.o(i.osThreadGetCount) refers to rtx_thread.o(i.svcRtxThreadGetCount) for svcRtxThreadGetCount
    rtx_thread.o(i.osThreadGetId) refers to rtx_thread.o(i.__get_IPSR) for __get_IPSR
    rtx_thread.o(i.osThreadGetId) refers to rtx_thread.o(i.__get_PRIMASK) for __get_PRIMASK
    rtx_thread.o(i.osThreadGetId) refers to rtx_thread.o(i.__get_BASEPRI) for __get_BASEPRI
    rtx_thread.o(i.osThreadGetId) refers to rtx_evr.o(i.EvrRtxThreadGetId) for EvrRtxThreadGetId
    rtx_thread.o(i.osThreadGetId) refers to rtx_thread.o(i.svcRtxThreadGetId) for svcRtxThreadGetId
    rtx_thread.o(i.osThreadGetName) refers to rtx_thread.o(i.__get_IPSR) for __get_IPSR
    rtx_thread.o(i.osThreadGetName) refers to rtx_thread.o(i.__get_PRIMASK) for __get_PRIMASK
    rtx_thread.o(i.osThreadGetName) refers to rtx_thread.o(i.__get_BASEPRI) for __get_BASEPRI
    rtx_thread.o(i.osThreadGetName) refers to rtx_evr.o(i.EvrRtxThreadGetName) for EvrRtxThreadGetName
    rtx_thread.o(i.osThreadGetName) refers to rtx_thread.o(i.svcRtxThreadGetName) for svcRtxThreadGetName
    rtx_thread.o(i.osThreadGetPriority) refers to rtx_thread.o(i.__get_IPSR) for __get_IPSR
    rtx_thread.o(i.osThreadGetPriority) refers to rtx_thread.o(i.__get_PRIMASK) for __get_PRIMASK
    rtx_thread.o(i.osThreadGetPriority) refers to rtx_thread.o(i.__get_BASEPRI) for __get_BASEPRI
    rtx_thread.o(i.osThreadGetPriority) refers to rtx_evr.o(i.EvrRtxThreadGetPriority) for EvrRtxThreadGetPriority
    rtx_thread.o(i.osThreadGetPriority) refers to rtx_thread.o(i.svcRtxThreadGetPriority) for svcRtxThreadGetPriority
    rtx_thread.o(i.osThreadGetStackSize) refers to rtx_thread.o(i.__get_IPSR) for __get_IPSR
    rtx_thread.o(i.osThreadGetStackSize) refers to rtx_thread.o(i.__get_PRIMASK) for __get_PRIMASK
    rtx_thread.o(i.osThreadGetStackSize) refers to rtx_thread.o(i.__get_BASEPRI) for __get_BASEPRI
    rtx_thread.o(i.osThreadGetStackSize) refers to rtx_evr.o(i.EvrRtxThreadGetStackSize) for EvrRtxThreadGetStackSize
    rtx_thread.o(i.osThreadGetStackSize) refers to rtx_thread.o(i.svcRtxThreadGetStackSize) for svcRtxThreadGetStackSize
    rtx_thread.o(i.osThreadGetStackSpace) refers to rtx_thread.o(i.__get_IPSR) for __get_IPSR
    rtx_thread.o(i.osThreadGetStackSpace) refers to rtx_thread.o(i.__get_PRIMASK) for __get_PRIMASK
    rtx_thread.o(i.osThreadGetStackSpace) refers to rtx_thread.o(i.__get_BASEPRI) for __get_BASEPRI
    rtx_thread.o(i.osThreadGetStackSpace) refers to rtx_evr.o(i.EvrRtxThreadGetStackSpace) for EvrRtxThreadGetStackSpace
    rtx_thread.o(i.osThreadGetStackSpace) refers to rtx_thread.o(i.svcRtxThreadGetStackSpace) for svcRtxThreadGetStackSpace
    rtx_thread.o(i.osThreadGetState) refers to rtx_thread.o(i.__get_IPSR) for __get_IPSR
    rtx_thread.o(i.osThreadGetState) refers to rtx_thread.o(i.__get_PRIMASK) for __get_PRIMASK
    rtx_thread.o(i.osThreadGetState) refers to rtx_thread.o(i.__get_BASEPRI) for __get_BASEPRI
    rtx_thread.o(i.osThreadGetState) refers to rtx_evr.o(i.EvrRtxThreadGetState) for EvrRtxThreadGetState
    rtx_thread.o(i.osThreadGetState) refers to rtx_thread.o(i.svcRtxThreadGetState) for svcRtxThreadGetState
    rtx_thread.o(i.osThreadJoin) refers to rtx_evr.o(i.EvrRtxThreadJoin) for EvrRtxThreadJoin
    rtx_thread.o(i.osThreadJoin) refers to rtx_thread.o(i.__get_IPSR) for __get_IPSR
    rtx_thread.o(i.osThreadJoin) refers to rtx_thread.o(i.__get_PRIMASK) for __get_PRIMASK
    rtx_thread.o(i.osThreadJoin) refers to rtx_thread.o(i.__get_BASEPRI) for __get_BASEPRI
    rtx_thread.o(i.osThreadJoin) refers to rtx_evr.o(i.EvrRtxThreadError) for EvrRtxThreadError
    rtx_thread.o(i.osThreadJoin) refers to rtx_thread.o(i.svcRtxThreadJoin) for svcRtxThreadJoin
    rtx_thread.o(i.osThreadNew) refers to rtx_evr.o(i.EvrRtxThreadNew) for EvrRtxThreadNew
    rtx_thread.o(i.osThreadNew) refers to rtx_thread.o(i.__get_IPSR) for __get_IPSR
    rtx_thread.o(i.osThreadNew) refers to rtx_thread.o(i.__get_PRIMASK) for __get_PRIMASK
    rtx_thread.o(i.osThreadNew) refers to rtx_thread.o(i.__get_BASEPRI) for __get_BASEPRI
    rtx_thread.o(i.osThreadNew) refers to rtx_evr.o(i.EvrRtxThreadError) for EvrRtxThreadError
    rtx_thread.o(i.osThreadNew) refers to rtx_thread.o(i.svcRtxThreadNew) for svcRtxThreadNew
    rtx_thread.o(i.osThreadResume) refers to rtx_evr.o(i.EvrRtxThreadResume) for EvrRtxThreadResume
    rtx_thread.o(i.osThreadResume) refers to rtx_thread.o(i.__get_IPSR) for __get_IPSR
    rtx_thread.o(i.osThreadResume) refers to rtx_thread.o(i.__get_PRIMASK) for __get_PRIMASK
    rtx_thread.o(i.osThreadResume) refers to rtx_thread.o(i.__get_BASEPRI) for __get_BASEPRI
    rtx_thread.o(i.osThreadResume) refers to rtx_evr.o(i.EvrRtxThreadError) for EvrRtxThreadError
    rtx_thread.o(i.osThreadResume) refers to rtx_thread.o(i.svcRtxThreadResume) for svcRtxThreadResume
    rtx_thread.o(i.osThreadSetPriority) refers to rtx_evr.o(i.EvrRtxThreadSetPriority) for EvrRtxThreadSetPriority
    rtx_thread.o(i.osThreadSetPriority) refers to rtx_thread.o(i.__get_IPSR) for __get_IPSR
    rtx_thread.o(i.osThreadSetPriority) refers to rtx_thread.o(i.__get_PRIMASK) for __get_PRIMASK
    rtx_thread.o(i.osThreadSetPriority) refers to rtx_thread.o(i.__get_BASEPRI) for __get_BASEPRI
    rtx_thread.o(i.osThreadSetPriority) refers to rtx_evr.o(i.EvrRtxThreadError) for EvrRtxThreadError
    rtx_thread.o(i.osThreadSetPriority) refers to rtx_thread.o(i.svcRtxThreadSetPriority) for svcRtxThreadSetPriority
    rtx_thread.o(i.osThreadSuspend) refers to rtx_evr.o(i.EvrRtxThreadSuspend) for EvrRtxThreadSuspend
    rtx_thread.o(i.osThreadSuspend) refers to rtx_thread.o(i.__get_IPSR) for __get_IPSR
    rtx_thread.o(i.osThreadSuspend) refers to rtx_thread.o(i.__get_PRIMASK) for __get_PRIMASK
    rtx_thread.o(i.osThreadSuspend) refers to rtx_thread.o(i.__get_BASEPRI) for __get_BASEPRI
    rtx_thread.o(i.osThreadSuspend) refers to rtx_evr.o(i.EvrRtxThreadError) for EvrRtxThreadError
    rtx_thread.o(i.osThreadSuspend) refers to rtx_thread.o(i.svcRtxThreadSuspend) for svcRtxThreadSuspend
    rtx_thread.o(i.osThreadTerminate) refers to rtx_evr.o(i.EvrRtxThreadTerminate) for EvrRtxThreadTerminate
    rtx_thread.o(i.osThreadTerminate) refers to rtx_thread.o(i.__get_IPSR) for __get_IPSR
    rtx_thread.o(i.osThreadTerminate) refers to rtx_thread.o(i.__get_PRIMASK) for __get_PRIMASK
    rtx_thread.o(i.osThreadTerminate) refers to rtx_thread.o(i.__get_BASEPRI) for __get_BASEPRI
    rtx_thread.o(i.osThreadTerminate) refers to rtx_evr.o(i.EvrRtxThreadError) for EvrRtxThreadError
    rtx_thread.o(i.osThreadTerminate) refers to rtx_thread.o(i.svcRtxThreadTerminate) for svcRtxThreadTerminate
    rtx_thread.o(i.osThreadYield) refers to rtx_evr.o(i.EvrRtxThreadYield) for EvrRtxThreadYield
    rtx_thread.o(i.osThreadYield) refers to rtx_thread.o(i.__get_IPSR) for __get_IPSR
    rtx_thread.o(i.osThreadYield) refers to rtx_thread.o(i.__get_PRIMASK) for __get_PRIMASK
    rtx_thread.o(i.osThreadYield) refers to rtx_thread.o(i.__get_BASEPRI) for __get_BASEPRI
    rtx_thread.o(i.osThreadYield) refers to rtx_evr.o(i.EvrRtxThreadError) for EvrRtxThreadError
    rtx_thread.o(i.osThreadYield) refers to rtx_thread.o(i.svcRtxThreadYield) for svcRtxThreadYield
    rtx_thread.o(i.svcRtxThreadDetach) refers to rtx_evr.o(i.EvrRtxThreadError) for EvrRtxThreadError
    rtx_thread.o(i.svcRtxThreadDetach) refers to rtx_thread.o(i.osRtxThreadListUnlink) for osRtxThreadListUnlink
    rtx_thread.o(i.svcRtxThreadDetach) refers to rtx_thread.o(i.osRtxThreadFree) for osRtxThreadFree
    rtx_thread.o(i.svcRtxThreadDetach) refers to rtx_evr.o(i.EvrRtxThreadDetached) for EvrRtxThreadDetached
    rtx_thread.o(i.svcRtxThreadDetach) refers to rtx_kernel.o(.data.os) for osRtxInfo
    rtx_thread.o(i.svcRtxThreadEnumerate) refers to rtx_evr.o(i.EvrRtxThreadEnumerate) for EvrRtxThreadEnumerate
    rtx_thread.o(i.svcRtxThreadEnumerate) refers to rtx_thread.o(i.osRtxThreadGetRunning) for osRtxThreadGetRunning
    rtx_thread.o(i.svcRtxThreadEnumerate) refers to rtx_kernel.o(.data.os) for osRtxInfo
    rtx_thread.o(i.svcRtxThreadExit) refers to rtx_thread.o(i.osRtxThreadGetRunning) for osRtxThreadGetRunning
    rtx_thread.o(i.svcRtxThreadExit) refers to rtx_mutex.o(i.osRtxMutexOwnerRelease) for osRtxMutexOwnerRelease
    rtx_thread.o(i.svcRtxThreadExit) refers to rtx_thread.o(i.osRtxThreadWaitExit) for osRtxThreadWaitExit
    rtx_thread.o(i.svcRtxThreadExit) refers to rtx_evr.o(i.EvrRtxThreadJoined) for EvrRtxThreadJoined
    rtx_thread.o(i.svcRtxThreadExit) refers to rtx_thread.o(i.osRtxKernelGetState) for osRtxKernelGetState
    rtx_thread.o(i.svcRtxThreadExit) refers to rtx_thread.o(i.osRtxThreadListGet) for osRtxThreadListGet
    rtx_thread.o(i.svcRtxThreadExit) refers to rtx_thread.o(i.osRtxThreadSwitch) for osRtxThreadSwitch
    rtx_thread.o(i.svcRtxThreadExit) refers to rtx_thread.o(i.osRtxThreadSetRunning) for osRtxThreadSetRunning
    rtx_thread.o(i.svcRtxThreadExit) refers to rtx_thread.o(i.osRtxThreadFree) for osRtxThreadFree
    rtx_thread.o(i.svcRtxThreadExit) refers to rtx_evr.o(i.EvrRtxThreadDestroyed) for EvrRtxThreadDestroyed
    rtx_thread.o(i.svcRtxThreadExit) refers to rtx_kernel.o(.data.os) for osRtxInfo
    rtx_thread.o(i.svcRtxThreadFlagsClear) refers to rtx_thread.o(i.osRtxThreadGetRunning) for osRtxThreadGetRunning
    rtx_thread.o(i.svcRtxThreadFlagsClear) refers to rtx_evr.o(i.EvrRtxThreadError) for EvrRtxThreadError
    rtx_thread.o(i.svcRtxThreadFlagsClear) refers to rtx_thread.o(i.ThreadFlagsClear) for ThreadFlagsClear
    rtx_thread.o(i.svcRtxThreadFlagsClear) refers to rtx_evr.o(i.EvrRtxThreadFlagsClearDone) for EvrRtxThreadFlagsClearDone
    rtx_thread.o(i.svcRtxThreadFlagsGet) refers to rtx_thread.o(i.osRtxThreadGetRunning) for osRtxThreadGetRunning
    rtx_thread.o(i.svcRtxThreadFlagsGet) refers to rtx_evr.o(i.EvrRtxThreadFlagsGet) for EvrRtxThreadFlagsGet
    rtx_thread.o(i.svcRtxThreadFlagsSet) refers to rtx_evr.o(i.EvrRtxThreadError) for EvrRtxThreadError
    rtx_thread.o(i.svcRtxThreadFlagsSet) refers to rtx_thread.o(i.ThreadFlagsSet) for ThreadFlagsSet
    rtx_thread.o(i.svcRtxThreadFlagsSet) refers to rtx_thread.o(i.ThreadFlagsCheck) for ThreadFlagsCheck
    rtx_thread.o(i.svcRtxThreadFlagsSet) refers to rtx_thread.o(i.osRtxThreadWaitExit) for osRtxThreadWaitExit
    rtx_thread.o(i.svcRtxThreadFlagsSet) refers to rtx_evr.o(i.EvrRtxThreadFlagsWaitCompleted) for EvrRtxThreadFlagsWaitCompleted
    rtx_thread.o(i.svcRtxThreadFlagsSet) refers to rtx_evr.o(i.EvrRtxThreadFlagsSetDone) for EvrRtxThreadFlagsSetDone
    rtx_thread.o(i.svcRtxThreadFlagsWait) refers to rtx_thread.o(i.osRtxThreadGetRunning) for osRtxThreadGetRunning
    rtx_thread.o(i.svcRtxThreadFlagsWait) refers to rtx_evr.o(i.EvrRtxThreadError) for EvrRtxThreadError
    rtx_thread.o(i.svcRtxThreadFlagsWait) refers to rtx_thread.o(i.ThreadFlagsCheck) for ThreadFlagsCheck
    rtx_thread.o(i.svcRtxThreadFlagsWait) refers to rtx_evr.o(i.EvrRtxThreadFlagsWaitCompleted) for EvrRtxThreadFlagsWaitCompleted
    rtx_thread.o(i.svcRtxThreadFlagsWait) refers to rtx_evr.o(i.EvrRtxThreadFlagsWaitPending) for EvrRtxThreadFlagsWaitPending
    rtx_thread.o(i.svcRtxThreadFlagsWait) refers to rtx_thread.o(i.osRtxThreadWaitEnter) for osRtxThreadWaitEnter
    rtx_thread.o(i.svcRtxThreadFlagsWait) refers to rtx_evr.o(i.EvrRtxThreadFlagsWaitNotCompleted) for EvrRtxThreadFlagsWaitNotCompleted
    rtx_thread.o(i.svcRtxThreadGetCount) refers to rtx_evr.o(i.EvrRtxThreadGetCount) for EvrRtxThreadGetCount
    rtx_thread.o(i.svcRtxThreadGetCount) refers to rtx_kernel.o(.data.os) for osRtxInfo
    rtx_thread.o(i.svcRtxThreadGetId) refers to rtx_thread.o(i.osRtxThreadGetRunning) for osRtxThreadGetRunning
    rtx_thread.o(i.svcRtxThreadGetId) refers to rtx_evr.o(i.EvrRtxThreadGetId) for EvrRtxThreadGetId
    rtx_thread.o(i.svcRtxThreadGetName) refers to rtx_evr.o(i.EvrRtxThreadGetName) for EvrRtxThreadGetName
    rtx_thread.o(i.svcRtxThreadGetPriority) refers to rtx_evr.o(i.EvrRtxThreadGetPriority) for EvrRtxThreadGetPriority
    rtx_thread.o(i.svcRtxThreadGetStackSize) refers to rtx_evr.o(i.EvrRtxThreadGetStackSize) for EvrRtxThreadGetStackSize
    rtx_thread.o(i.svcRtxThreadGetStackSpace) refers to rtx_evr.o(i.EvrRtxThreadGetStackSpace) for EvrRtxThreadGetStackSpace
    rtx_thread.o(i.svcRtxThreadGetStackSpace) refers to rtx_lib.o(.rodata) for osRtxConfig
    rtx_thread.o(i.svcRtxThreadGetState) refers to rtx_evr.o(i.EvrRtxThreadGetState) for EvrRtxThreadGetState
    rtx_thread.o(i.svcRtxThreadJoin) refers to rtx_evr.o(i.EvrRtxThreadError) for EvrRtxThreadError
    rtx_thread.o(i.svcRtxThreadJoin) refers to rtx_thread.o(i.osRtxThreadListUnlink) for osRtxThreadListUnlink
    rtx_thread.o(i.svcRtxThreadJoin) refers to rtx_thread.o(i.osRtxThreadFree) for osRtxThreadFree
    rtx_thread.o(i.svcRtxThreadJoin) refers to rtx_evr.o(i.EvrRtxThreadJoinPending) for EvrRtxThreadJoinPending
    rtx_thread.o(i.svcRtxThreadJoin) refers to rtx_thread.o(i.osRtxThreadWaitEnter) for osRtxThreadWaitEnter
    rtx_thread.o(i.svcRtxThreadJoin) refers to rtx_thread.o(i.osRtxThreadGetRunning) for osRtxThreadGetRunning
    rtx_thread.o(i.svcRtxThreadJoin) refers to rtx_evr.o(i.EvrRtxThreadJoined) for EvrRtxThreadJoined
    rtx_thread.o(i.svcRtxThreadJoin) refers to rtx_kernel.o(.data.os) for osRtxInfo
    rtx_thread.o(i.svcRtxThreadNew) refers to rtx_evr.o(i.EvrRtxThreadError) for EvrRtxThreadError
    rtx_thread.o(i.svcRtxThreadNew) refers to rtx_mempool.o(i.osRtxMemoryPoolAlloc) for osRtxMemoryPoolAlloc
    rtx_thread.o(i.svcRtxThreadNew) refers to rtx_memory.o(i.osRtxMemoryAlloc) for osRtxMemoryAlloc
    rtx_thread.o(i.svcRtxThreadNew) refers to rtx_mempool.o(i.osRtxMemoryPoolFree) for osRtxMemoryPoolFree
    rtx_thread.o(i.svcRtxThreadNew) refers to rtx_memory.o(i.osRtxMemoryFree) for osRtxMemoryFree
    rtx_thread.o(i.svcRtxThreadNew) refers to rtx_evr.o(i.EvrRtxThreadCreated) for EvrRtxThreadCreated
    rtx_thread.o(i.svcRtxThreadNew) refers to rtx_thread.o(i.osRtxThreadDispatch) for osRtxThreadDispatch
    rtx_thread.o(i.svcRtxThreadNew) refers to rtx_kernel.o(.data.os) for osRtxInfo
    rtx_thread.o(i.svcRtxThreadNew) refers to rtx_lib.o(.rodata) for osRtxConfig
    rtx_thread.o(i.svcRtxThreadNew) refers to rtx_thread.o(i.osThreadExit) for osThreadExit
    rtx_thread.o(i.svcRtxThreadNew) refers to rtx_thread.o(i.osRtxThreadPostProcess) for osRtxThreadPostProcess
    rtx_thread.o(i.svcRtxThreadResume) refers to rtx_evr.o(i.EvrRtxThreadError) for EvrRtxThreadError
    rtx_thread.o(i.svcRtxThreadResume) refers to rtx_evr.o(i.EvrRtxThreadResumed) for EvrRtxThreadResumed
    rtx_thread.o(i.svcRtxThreadResume) refers to rtx_thread.o(i.osRtxThreadListRemove) for osRtxThreadListRemove
    rtx_thread.o(i.svcRtxThreadResume) refers to rtx_thread.o(i.osRtxThreadDelayRemove) for osRtxThreadDelayRemove
    rtx_thread.o(i.svcRtxThreadResume) refers to rtx_thread.o(i.osRtxThreadDispatch) for osRtxThreadDispatch
    rtx_thread.o(i.svcRtxThreadSetPriority) refers to rtx_evr.o(i.EvrRtxThreadError) for EvrRtxThreadError
    rtx_thread.o(i.svcRtxThreadSetPriority) refers to rtx_thread.o(i.osRtxThreadListSort) for osRtxThreadListSort
    rtx_thread.o(i.svcRtxThreadSetPriority) refers to rtx_thread.o(i.osRtxThreadDispatch) for osRtxThreadDispatch
    rtx_thread.o(i.svcRtxThreadSuspend) refers to rtx_evr.o(i.EvrRtxThreadError) for EvrRtxThreadError
    rtx_thread.o(i.svcRtxThreadSuspend) refers to rtx_thread.o(i.osRtxKernelGetState) for osRtxKernelGetState
    rtx_thread.o(i.svcRtxThreadSuspend) refers to rtx_thread.o(i.osRtxThreadListRemove) for osRtxThreadListRemove
    rtx_thread.o(i.svcRtxThreadSuspend) refers to rtx_thread.o(i.osRtxThreadDelayRemove) for osRtxThreadDelayRemove
    rtx_thread.o(i.svcRtxThreadSuspend) refers to rtx_evr.o(i.EvrRtxThreadSuspended) for EvrRtxThreadSuspended
    rtx_thread.o(i.svcRtxThreadSuspend) refers to rtx_thread.o(i.osRtxThreadListGet) for osRtxThreadListGet
    rtx_thread.o(i.svcRtxThreadSuspend) refers to rtx_thread.o(i.osRtxThreadSwitch) for osRtxThreadSwitch
    rtx_thread.o(i.svcRtxThreadSuspend) refers to rtx_thread.o(i.osRtxThreadDelayInsert) for osRtxThreadDelayInsert
    rtx_thread.o(i.svcRtxThreadSuspend) refers to rtx_kernel.o(.data.os) for osRtxInfo
    rtx_thread.o(i.svcRtxThreadTerminate) refers to rtx_evr.o(i.EvrRtxThreadError) for EvrRtxThreadError
    rtx_thread.o(i.svcRtxThreadTerminate) refers to rtx_thread.o(i.osRtxThreadListRemove) for osRtxThreadListRemove
    rtx_thread.o(i.svcRtxThreadTerminate) refers to rtx_thread.o(i.osRtxThreadDelayRemove) for osRtxThreadDelayRemove
    rtx_thread.o(i.svcRtxThreadTerminate) refers to rtx_mutex.o(i.osRtxMutexOwnerRelease) for osRtxMutexOwnerRelease
    rtx_thread.o(i.svcRtxThreadTerminate) refers to rtx_thread.o(i.osRtxThreadWaitExit) for osRtxThreadWaitExit
    rtx_thread.o(i.svcRtxThreadTerminate) refers to rtx_evr.o(i.EvrRtxThreadJoined) for EvrRtxThreadJoined
    rtx_thread.o(i.svcRtxThreadTerminate) refers to rtx_thread.o(i.osRtxKernelGetState) for osRtxKernelGetState
    rtx_thread.o(i.svcRtxThreadTerminate) refers to rtx_thread.o(i.osRtxThreadListGet) for osRtxThreadListGet
    rtx_thread.o(i.svcRtxThreadTerminate) refers to rtx_thread.o(i.osRtxThreadSwitch) for osRtxThreadSwitch
    rtx_thread.o(i.svcRtxThreadTerminate) refers to rtx_thread.o(i.osRtxThreadSetRunning) for osRtxThreadSetRunning
    rtx_thread.o(i.svcRtxThreadTerminate) refers to rtx_thread.o(i.osRtxThreadDispatch) for osRtxThreadDispatch
    rtx_thread.o(i.svcRtxThreadTerminate) refers to rtx_thread.o(i.osRtxThreadFree) for osRtxThreadFree
    rtx_thread.o(i.svcRtxThreadTerminate) refers to rtx_evr.o(i.EvrRtxThreadDestroyed) for EvrRtxThreadDestroyed
    rtx_thread.o(i.svcRtxThreadTerminate) refers to rtx_kernel.o(.data.os) for osRtxInfo
    rtx_thread.o(i.svcRtxThreadYield) refers to rtx_thread.o(i.osRtxKernelGetState) for osRtxKernelGetState
    rtx_thread.o(i.svcRtxThreadYield) refers to rtx_thread.o(i.osRtxThreadGetRunning) for osRtxThreadGetRunning
    rtx_thread.o(i.svcRtxThreadYield) refers to rtx_thread.o(i.osRtxThreadListRemove) for osRtxThreadListRemove
    rtx_thread.o(i.svcRtxThreadYield) refers to rtx_thread.o(i.osRtxThreadReadyPut) for osRtxThreadReadyPut
    rtx_thread.o(i.svcRtxThreadYield) refers to rtx_thread.o(i.osRtxThreadSwitch) for osRtxThreadSwitch
    rtx_thread.o(i.svcRtxThreadYield) refers to rtx_kernel.o(.data.os) for osRtxInfo
    rtx_timer.o(i.TimerInsert) refers to rtx_kernel.o(.data.os) for osRtxInfo
    rtx_timer.o(i.TimerRemove) refers to rtx_kernel.o(.data.os) for osRtxInfo
    rtx_timer.o(i.TimerUnlink) refers to rtx_kernel.o(.data.os) for osRtxInfo
    rtx_timer.o(i.osRtxTimerThread) refers to rtx_msgqueue.o(i.osMessageQueueNew) for osMessageQueueNew
    rtx_timer.o(i.osRtxTimerThread) refers to rtx_msgqueue.o(i.osMessageQueueGet) for osMessageQueueGet
    rtx_timer.o(i.osRtxTimerThread) refers to rtx_evr.o(i.EvrRtxTimerCallback) for EvrRtxTimerCallback
    rtx_timer.o(i.osRtxTimerThread) refers to rtx_lib.o(.rodata) for osRtxConfig
    rtx_timer.o(i.osRtxTimerThread) refers to rtx_kernel.o(.data.os) for osRtxInfo
    rtx_timer.o(i.osRtxTimerThread) refers to rtx_timer.o(i.osRtxTimerTick) for osRtxTimerTick
    rtx_timer.o(i.osRtxTimerTick) refers to rtx_timer.o(i.TimerUnlink) for TimerUnlink
    rtx_timer.o(i.osRtxTimerTick) refers to rtx_msgqueue.o(i.osMessageQueuePut) for osMessageQueuePut
    rtx_timer.o(i.osRtxTimerTick) refers to rtx_config.o(i.osRtxErrorNotify) for osRtxErrorNotify
    rtx_timer.o(i.osRtxTimerTick) refers to rtx_timer.o(i.TimerInsert) for TimerInsert
    rtx_timer.o(i.osRtxTimerTick) refers to rtx_kernel.o(.data.os) for osRtxInfo
    rtx_timer.o(i.osTimerDelete) refers to rtx_evr.o(i.EvrRtxTimerDelete) for EvrRtxTimerDelete
    rtx_timer.o(i.osTimerDelete) refers to rtx_timer.o(i.__get_IPSR) for __get_IPSR
    rtx_timer.o(i.osTimerDelete) refers to rtx_timer.o(i.__get_PRIMASK) for __get_PRIMASK
    rtx_timer.o(i.osTimerDelete) refers to rtx_timer.o(i.__get_BASEPRI) for __get_BASEPRI
    rtx_timer.o(i.osTimerDelete) refers to rtx_evr.o(i.EvrRtxTimerError) for EvrRtxTimerError
    rtx_timer.o(i.osTimerDelete) refers to rtx_timer.o(i.svcRtxTimerDelete) for svcRtxTimerDelete
    rtx_timer.o(i.osTimerGetName) refers to rtx_timer.o(i.__get_IPSR) for __get_IPSR
    rtx_timer.o(i.osTimerGetName) refers to rtx_timer.o(i.__get_PRIMASK) for __get_PRIMASK
    rtx_timer.o(i.osTimerGetName) refers to rtx_timer.o(i.__get_BASEPRI) for __get_BASEPRI
    rtx_timer.o(i.osTimerGetName) refers to rtx_evr.o(i.EvrRtxTimerGetName) for EvrRtxTimerGetName
    rtx_timer.o(i.osTimerGetName) refers to rtx_timer.o(i.svcRtxTimerGetName) for svcRtxTimerGetName
    rtx_timer.o(i.osTimerIsRunning) refers to rtx_timer.o(i.__get_IPSR) for __get_IPSR
    rtx_timer.o(i.osTimerIsRunning) refers to rtx_timer.o(i.__get_PRIMASK) for __get_PRIMASK
    rtx_timer.o(i.osTimerIsRunning) refers to rtx_timer.o(i.__get_BASEPRI) for __get_BASEPRI
    rtx_timer.o(i.osTimerIsRunning) refers to rtx_evr.o(i.EvrRtxTimerIsRunning) for EvrRtxTimerIsRunning
    rtx_timer.o(i.osTimerIsRunning) refers to rtx_timer.o(i.svcRtxTimerIsRunning) for svcRtxTimerIsRunning
    rtx_timer.o(i.osTimerNew) refers to rtx_evr.o(i.EvrRtxTimerNew) for EvrRtxTimerNew
    rtx_timer.o(i.osTimerNew) refers to rtx_timer.o(i.__get_IPSR) for __get_IPSR
    rtx_timer.o(i.osTimerNew) refers to rtx_timer.o(i.__get_PRIMASK) for __get_PRIMASK
    rtx_timer.o(i.osTimerNew) refers to rtx_timer.o(i.__get_BASEPRI) for __get_BASEPRI
    rtx_timer.o(i.osTimerNew) refers to rtx_evr.o(i.EvrRtxTimerError) for EvrRtxTimerError
    rtx_timer.o(i.osTimerNew) refers to rtx_timer.o(i.svcRtxTimerNew) for svcRtxTimerNew
    rtx_timer.o(i.osTimerStart) refers to rtx_evr.o(i.EvrRtxTimerStart) for EvrRtxTimerStart
    rtx_timer.o(i.osTimerStart) refers to rtx_timer.o(i.__get_IPSR) for __get_IPSR
    rtx_timer.o(i.osTimerStart) refers to rtx_timer.o(i.__get_PRIMASK) for __get_PRIMASK
    rtx_timer.o(i.osTimerStart) refers to rtx_timer.o(i.__get_BASEPRI) for __get_BASEPRI
    rtx_timer.o(i.osTimerStart) refers to rtx_evr.o(i.EvrRtxTimerError) for EvrRtxTimerError
    rtx_timer.o(i.osTimerStart) refers to rtx_timer.o(i.svcRtxTimerStart) for svcRtxTimerStart
    rtx_timer.o(i.osTimerStop) refers to rtx_evr.o(i.EvrRtxTimerStop) for EvrRtxTimerStop
    rtx_timer.o(i.osTimerStop) refers to rtx_timer.o(i.__get_IPSR) for __get_IPSR
    rtx_timer.o(i.osTimerStop) refers to rtx_timer.o(i.__get_PRIMASK) for __get_PRIMASK
    rtx_timer.o(i.osTimerStop) refers to rtx_timer.o(i.__get_BASEPRI) for __get_BASEPRI
    rtx_timer.o(i.osTimerStop) refers to rtx_evr.o(i.EvrRtxTimerError) for EvrRtxTimerError
    rtx_timer.o(i.osTimerStop) refers to rtx_timer.o(i.svcRtxTimerStop) for svcRtxTimerStop
    rtx_timer.o(i.svcRtxTimerDelete) refers to rtx_evr.o(i.EvrRtxTimerError) for EvrRtxTimerError
    rtx_timer.o(i.svcRtxTimerDelete) refers to rtx_timer.o(i.TimerRemove) for TimerRemove
    rtx_timer.o(i.svcRtxTimerDelete) refers to rtx_mempool.o(i.osRtxMemoryPoolFree) for osRtxMemoryPoolFree
    rtx_timer.o(i.svcRtxTimerDelete) refers to rtx_memory.o(i.osRtxMemoryFree) for osRtxMemoryFree
    rtx_timer.o(i.svcRtxTimerDelete) refers to rtx_evr.o(i.EvrRtxTimerDestroyed) for EvrRtxTimerDestroyed
    rtx_timer.o(i.svcRtxTimerDelete) refers to rtx_kernel.o(.data.os) for osRtxInfo
    rtx_timer.o(i.svcRtxTimerGetName) refers to rtx_evr.o(i.EvrRtxTimerGetName) for EvrRtxTimerGetName
    rtx_timer.o(i.svcRtxTimerIsRunning) refers to rtx_evr.o(i.EvrRtxTimerIsRunning) for EvrRtxTimerIsRunning
    rtx_timer.o(i.svcRtxTimerNew) refers to rtx_evr.o(i.EvrRtxTimerError) for EvrRtxTimerError
    rtx_timer.o(i.svcRtxTimerNew) refers to rtx_mempool.o(i.osRtxMemoryPoolAlloc) for osRtxMemoryPoolAlloc
    rtx_timer.o(i.svcRtxTimerNew) refers to rtx_memory.o(i.osRtxMemoryAlloc) for osRtxMemoryAlloc
    rtx_timer.o(i.svcRtxTimerNew) refers to rtx_evr.o(i.EvrRtxTimerCreated) for EvrRtxTimerCreated
    rtx_timer.o(i.svcRtxTimerNew) refers to rtx_kernel.o(.data.os) for osRtxInfo
    rtx_timer.o(i.svcRtxTimerStart) refers to rtx_evr.o(i.EvrRtxTimerError) for EvrRtxTimerError
    rtx_timer.o(i.svcRtxTimerStart) refers to rtx_timer.o(i.TimerRemove) for TimerRemove
    rtx_timer.o(i.svcRtxTimerStart) refers to rtx_timer.o(i.TimerInsert) for TimerInsert
    rtx_timer.o(i.svcRtxTimerStart) refers to rtx_evr.o(i.EvrRtxTimerStarted) for EvrRtxTimerStarted
    rtx_timer.o(i.svcRtxTimerStart) refers to rtx_kernel.o(.data.os) for osRtxInfo
    rtx_timer.o(i.svcRtxTimerStop) refers to rtx_evr.o(i.EvrRtxTimerError) for EvrRtxTimerError
    rtx_timer.o(i.svcRtxTimerStop) refers to rtx_timer.o(i.TimerRemove) for TimerRemove
    rtx_timer.o(i.svcRtxTimerStop) refers to rtx_evr.o(i.EvrRtxTimerStopped) for EvrRtxTimerStopped
    os_systick.o(i.OS_Tick_Disable) refers to os_systick.o(.data) for PendST
    os_systick.o(i.OS_Tick_Enable) refers to os_systick.o(.data) for PendST
    os_systick.o(i.OS_Tick_GetClock) refers to system_lpc17xx.o(.data) for SystemCoreClock
    os_systick.o(i.OS_Tick_Setup) refers to system_lpc17xx.o(.data) for SystemCoreClock
    os_systick.o(i.OS_Tick_Setup) refers to os_systick.o(.data) for PendST
    i2c_lpc17xx.o(i.GetI2CClockFreq) refers to system_lpc17xx.o(.data) for SystemCoreClock
    i2c_lpc17xx.o(i.I2C1_Control) refers to i2c_lpc17xx.o(i.I2Cx_Control) for I2Cx_Control
    i2c_lpc17xx.o(i.I2C1_Control) refers to i2c_lpc17xx.o(.constdata) for I2C1_Resources
    i2c_lpc17xx.o(i.I2C1_GetDataCount) refers to i2c_lpc17xx.o(i.I2Cx_GetDataCount) for I2Cx_GetDataCount
    i2c_lpc17xx.o(i.I2C1_GetDataCount) refers to i2c_lpc17xx.o(.constdata) for I2C1_Resources
    i2c_lpc17xx.o(i.I2C1_GetStatus) refers to i2c_lpc17xx.o(i.I2Cx_GetStatus) for I2Cx_GetStatus
    i2c_lpc17xx.o(i.I2C1_GetStatus) refers to i2c_lpc17xx.o(.constdata) for I2C1_Resources
    i2c_lpc17xx.o(i.I2C1_IRQHandler) refers to i2c_lpc17xx.o(i.I2Cx_IRQHandler) for I2Cx_IRQHandler
    i2c_lpc17xx.o(i.I2C1_IRQHandler) refers to i2c_lpc17xx.o(.constdata) for I2C1_Resources
    i2c_lpc17xx.o(i.I2C1_Initialize) refers to i2c_lpc17xx.o(i.I2Cx_Initialize) for I2Cx_Initialize
    i2c_lpc17xx.o(i.I2C1_Initialize) refers to i2c_lpc17xx.o(.constdata) for I2C1_Resources
    i2c_lpc17xx.o(i.I2C1_MasterReceive) refers to i2c_lpc17xx.o(i.I2Cx_MasterReceive) for I2Cx_MasterReceive
    i2c_lpc17xx.o(i.I2C1_MasterReceive) refers to i2c_lpc17xx.o(.constdata) for I2C1_Resources
    i2c_lpc17xx.o(i.I2C1_MasterTransmit) refers to i2c_lpc17xx.o(i.I2Cx_MasterTransmit) for I2Cx_MasterTransmit
    i2c_lpc17xx.o(i.I2C1_MasterTransmit) refers to i2c_lpc17xx.o(.constdata) for I2C1_Resources
    i2c_lpc17xx.o(i.I2C1_PowerControl) refers to i2c_lpc17xx.o(i.I2Cx_PowerControl) for I2Cx_PowerControl
    i2c_lpc17xx.o(i.I2C1_PowerControl) refers to i2c_lpc17xx.o(.constdata) for I2C1_Resources
    i2c_lpc17xx.o(i.I2C1_SlaveReceive) refers to i2c_lpc17xx.o(i.I2Cx_SlaveReceive) for I2Cx_SlaveReceive
    i2c_lpc17xx.o(i.I2C1_SlaveReceive) refers to i2c_lpc17xx.o(.constdata) for I2C1_Resources
    i2c_lpc17xx.o(i.I2C1_SlaveTransmit) refers to i2c_lpc17xx.o(i.I2Cx_SlaveTransmit) for I2Cx_SlaveTransmit
    i2c_lpc17xx.o(i.I2C1_SlaveTransmit) refers to i2c_lpc17xx.o(.constdata) for I2C1_Resources
    i2c_lpc17xx.o(i.I2C1_Uninitialize) refers to i2c_lpc17xx.o(i.I2Cx_Uninitialize) for I2Cx_Uninitialize
    i2c_lpc17xx.o(i.I2C1_Uninitialize) refers to i2c_lpc17xx.o(.constdata) for I2C1_Resources
    i2c_lpc17xx.o(i.I2C_GetCapabilities) refers to i2c_lpc17xx.o(.constdata) for DriverCapabilities
    i2c_lpc17xx.o(i.I2C_GetVersion) refers to i2c_lpc17xx.o(.constdata) for DriverVersion
    i2c_lpc17xx.o(i.I2Cx_Control) refers to i2c_lpc17xx.o(i.GetI2CClockFreq) for GetI2CClockFreq
    i2c_lpc17xx.o(i.I2Cx_Control) refers to pin_lpc17xx.o(i.PIN_ConfigureI2C0Pins) for PIN_ConfigureI2C0Pins
    i2c_lpc17xx.o(i.I2Cx_Control) refers to i2c_lpc17xx.o(i.__NVIC_DisableIRQ) for __NVIC_DisableIRQ
    i2c_lpc17xx.o(i.I2Cx_Control) refers to i2c_lpc17xx.o(i.__NVIC_ClearPendingIRQ) for __NVIC_ClearPendingIRQ
    i2c_lpc17xx.o(i.I2Cx_Control) refers to i2c_lpc17xx.o(i.__NVIC_EnableIRQ) for __NVIC_EnableIRQ
    i2c_lpc17xx.o(i.I2Cx_IRQHandler) refers to i2c_lpc17xx.o(i.I2Cx_MasterHandler) for I2Cx_MasterHandler
    i2c_lpc17xx.o(i.I2Cx_IRQHandler) refers to i2c_lpc17xx.o(i.I2Cx_SlaveHandler) for I2Cx_SlaveHandler
    i2c_lpc17xx.o(i.I2Cx_Initialize) refers to pin_lpc17xx.o(i.PIN_Configure) for PIN_Configure
    i2c_lpc17xx.o(i.I2Cx_Initialize) refers to memseta.o(.text) for __aeabi_memclr4
    i2c_lpc17xx.o(i.I2Cx_MasterHandler) refers to i2c_lpc17xx.o(i.__NVIC_DisableIRQ) for __NVIC_DisableIRQ
    i2c_lpc17xx.o(i.I2Cx_MasterReceive) refers to i2c_lpc17xx.o(i.__NVIC_DisableIRQ) for __NVIC_DisableIRQ
    i2c_lpc17xx.o(i.I2Cx_MasterReceive) refers to i2c_lpc17xx.o(i.__NVIC_EnableIRQ) for __NVIC_EnableIRQ
    i2c_lpc17xx.o(i.I2Cx_MasterTransmit) refers to i2c_lpc17xx.o(i.__NVIC_DisableIRQ) for __NVIC_DisableIRQ
    i2c_lpc17xx.o(i.I2Cx_MasterTransmit) refers to i2c_lpc17xx.o(i.__NVIC_EnableIRQ) for __NVIC_EnableIRQ
    i2c_lpc17xx.o(i.I2Cx_PowerControl) refers to i2c_lpc17xx.o(i.__NVIC_DisableIRQ) for __NVIC_DisableIRQ
    i2c_lpc17xx.o(i.I2Cx_PowerControl) refers to i2c_lpc17xx.o(i.__NVIC_ClearPendingIRQ) for __NVIC_ClearPendingIRQ
    i2c_lpc17xx.o(i.I2Cx_PowerControl) refers to i2c_lpc17xx.o(i.__NVIC_EnableIRQ) for __NVIC_EnableIRQ
    i2c_lpc17xx.o(i.I2Cx_SlaveHandler) refers to i2c_lpc17xx.o(i.__NVIC_DisableIRQ) for __NVIC_DisableIRQ
    i2c_lpc17xx.o(i.I2Cx_SlaveReceive) refers to i2c_lpc17xx.o(i.__NVIC_DisableIRQ) for __NVIC_DisableIRQ
    i2c_lpc17xx.o(i.I2Cx_SlaveReceive) refers to i2c_lpc17xx.o(i.__NVIC_EnableIRQ) for __NVIC_EnableIRQ
    i2c_lpc17xx.o(i.I2Cx_SlaveTransmit) refers to i2c_lpc17xx.o(i.__NVIC_DisableIRQ) for __NVIC_DisableIRQ
    i2c_lpc17xx.o(i.I2Cx_SlaveTransmit) refers to i2c_lpc17xx.o(i.__NVIC_EnableIRQ) for __NVIC_EnableIRQ
    i2c_lpc17xx.o(i.I2Cx_Uninitialize) refers to pin_lpc17xx.o(i.PIN_Configure) for PIN_Configure
    i2c_lpc17xx.o(.constdata) refers to i2c_lpc17xx.o(.data) for I2C1_PIN
    i2c_lpc17xx.o(.constdata) refers to i2c_lpc17xx.o(.bss) for I2C1_Ctrl
    i2c_lpc17xx.o(.constdata) refers to i2c_lpc17xx.o(i.I2C_GetVersion) for I2C_GetVersion
    i2c_lpc17xx.o(.constdata) refers to i2c_lpc17xx.o(i.I2C_GetCapabilities) for I2C_GetCapabilities
    i2c_lpc17xx.o(.constdata) refers to i2c_lpc17xx.o(i.I2C1_Initialize) for I2C1_Initialize
    i2c_lpc17xx.o(.constdata) refers to i2c_lpc17xx.o(i.I2C1_Uninitialize) for I2C1_Uninitialize
    i2c_lpc17xx.o(.constdata) refers to i2c_lpc17xx.o(i.I2C1_PowerControl) for I2C1_PowerControl
    i2c_lpc17xx.o(.constdata) refers to i2c_lpc17xx.o(i.I2C1_MasterTransmit) for I2C1_MasterTransmit
    i2c_lpc17xx.o(.constdata) refers to i2c_lpc17xx.o(i.I2C1_MasterReceive) for I2C1_MasterReceive
    i2c_lpc17xx.o(.constdata) refers to i2c_lpc17xx.o(i.I2C1_SlaveTransmit) for I2C1_SlaveTransmit
    i2c_lpc17xx.o(.constdata) refers to i2c_lpc17xx.o(i.I2C1_SlaveReceive) for I2C1_SlaveReceive
    i2c_lpc17xx.o(.constdata) refers to i2c_lpc17xx.o(i.I2C1_GetDataCount) for I2C1_GetDataCount
    i2c_lpc17xx.o(.constdata) refers to i2c_lpc17xx.o(i.I2C1_Control) for I2C1_Control
    i2c_lpc17xx.o(.constdata) refers to i2c_lpc17xx.o(i.I2C1_GetStatus) for I2C1_GetStatus
    uart_lpc17xx.o(i.GetUsartClockFreq) refers to system_lpc17xx.o(.data) for SystemCoreClock
    uart_lpc17xx.o(i.UART0_IRQHandler) refers to uart_lpc17xx.o(i.USART_IRQHandler) for USART_IRQHandler
    uart_lpc17xx.o(i.UART0_IRQHandler) refers to uart_lpc17xx.o(.constdata) for USART0_Resources
    uart_lpc17xx.o(i.UART1_IRQHandler) refers to uart_lpc17xx.o(i.USART_IRQHandler) for USART_IRQHandler
    uart_lpc17xx.o(i.UART1_IRQHandler) refers to uart_lpc17xx.o(.constdata) for USART1_Resources
    uart_lpc17xx.o(i.USART0_Control) refers to uart_lpc17xx.o(i.USART_Control) for USART_Control
    uart_lpc17xx.o(i.USART0_Control) refers to uart_lpc17xx.o(.constdata) for USART0_Resources
    uart_lpc17xx.o(i.USART0_GPDMA_Rx_Event) refers to uart_lpc17xx.o(i.USART_GPDMA_Rx_Event) for USART_GPDMA_Rx_Event
    uart_lpc17xx.o(i.USART0_GPDMA_Rx_Event) refers to uart_lpc17xx.o(.constdata) for USART0_Resources
    uart_lpc17xx.o(i.USART0_GPDMA_Tx_Event) refers to uart_lpc17xx.o(i.USART_GPDMA_Tx_Event) for USART_GPDMA_Tx_Event
    uart_lpc17xx.o(i.USART0_GPDMA_Tx_Event) refers to uart_lpc17xx.o(.constdata) for USART0_Resources
    uart_lpc17xx.o(i.USART0_GetCapabilities) refers to uart_lpc17xx.o(i.USART_GetCapabilities) for USART_GetCapabilities
    uart_lpc17xx.o(i.USART0_GetCapabilities) refers to uart_lpc17xx.o(.constdata) for USART0_Resources
    uart_lpc17xx.o(i.USART0_GetModemStatus) refers to uart_lpc17xx.o(i.USART_GetModemStatus) for USART_GetModemStatus
    uart_lpc17xx.o(i.USART0_GetModemStatus) refers to uart_lpc17xx.o(.constdata) for USART0_Resources
    uart_lpc17xx.o(i.USART0_GetRxCount) refers to uart_lpc17xx.o(i.USART_GetRxCount) for USART_GetRxCount
    uart_lpc17xx.o(i.USART0_GetRxCount) refers to uart_lpc17xx.o(.constdata) for USART0_Resources
    uart_lpc17xx.o(i.USART0_GetStatus) refers to uart_lpc17xx.o(i.USART_GetStatus) for USART_GetStatus
    uart_lpc17xx.o(i.USART0_GetStatus) refers to uart_lpc17xx.o(.constdata) for USART0_Resources
    uart_lpc17xx.o(i.USART0_GetTxCount) refers to uart_lpc17xx.o(i.USART_GetTxCount) for USART_GetTxCount
    uart_lpc17xx.o(i.USART0_GetTxCount) refers to uart_lpc17xx.o(.constdata) for USART0_Resources
    uart_lpc17xx.o(i.USART0_Initialize) refers to uart_lpc17xx.o(i.USART_Initialize) for USART_Initialize
    uart_lpc17xx.o(i.USART0_Initialize) refers to uart_lpc17xx.o(.constdata) for USART0_Resources
    uart_lpc17xx.o(i.USART0_PowerControl) refers to uart_lpc17xx.o(i.USART_PowerControl) for USART_PowerControl
    uart_lpc17xx.o(i.USART0_PowerControl) refers to uart_lpc17xx.o(.constdata) for USART0_Resources
    uart_lpc17xx.o(i.USART0_Receive) refers to uart_lpc17xx.o(i.USART_Receive) for USART_Receive
    uart_lpc17xx.o(i.USART0_Receive) refers to uart_lpc17xx.o(.constdata) for USART0_Resources
    uart_lpc17xx.o(i.USART0_Send) refers to uart_lpc17xx.o(i.USART_Send) for USART_Send
    uart_lpc17xx.o(i.USART0_Send) refers to uart_lpc17xx.o(.constdata) for USART0_Resources
    uart_lpc17xx.o(i.USART0_SetModemControl) refers to uart_lpc17xx.o(i.USART_SetModemControl) for USART_SetModemControl
    uart_lpc17xx.o(i.USART0_SetModemControl) refers to uart_lpc17xx.o(.constdata) for USART0_Resources
    uart_lpc17xx.o(i.USART0_Transfer) refers to uart_lpc17xx.o(i.USART_Transfer) for USART_Transfer
    uart_lpc17xx.o(i.USART0_Transfer) refers to uart_lpc17xx.o(.constdata) for USART0_Resources
    uart_lpc17xx.o(i.USART0_Uninitialize) refers to uart_lpc17xx.o(i.USART_Uninitialize) for USART_Uninitialize
    uart_lpc17xx.o(i.USART0_Uninitialize) refers to uart_lpc17xx.o(.constdata) for USART0_Resources
    uart_lpc17xx.o(i.USART1_Control) refers to uart_lpc17xx.o(i.USART_Control) for USART_Control
    uart_lpc17xx.o(i.USART1_Control) refers to uart_lpc17xx.o(.constdata) for USART1_Resources
    uart_lpc17xx.o(i.USART1_GPDMA_Rx_Event) refers to uart_lpc17xx.o(i.USART_GPDMA_Rx_Event) for USART_GPDMA_Rx_Event
    uart_lpc17xx.o(i.USART1_GPDMA_Rx_Event) refers to uart_lpc17xx.o(.constdata) for USART1_Resources
    uart_lpc17xx.o(i.USART1_GPDMA_Tx_Event) refers to uart_lpc17xx.o(i.USART_GPDMA_Tx_Event) for USART_GPDMA_Tx_Event
    uart_lpc17xx.o(i.USART1_GPDMA_Tx_Event) refers to uart_lpc17xx.o(.constdata) for USART1_Resources
    uart_lpc17xx.o(i.USART1_GetCapabilities) refers to uart_lpc17xx.o(i.USART_GetCapabilities) for USART_GetCapabilities
    uart_lpc17xx.o(i.USART1_GetCapabilities) refers to uart_lpc17xx.o(.constdata) for USART1_Resources
    uart_lpc17xx.o(i.USART1_GetModemStatus) refers to uart_lpc17xx.o(i.USART_GetModemStatus) for USART_GetModemStatus
    uart_lpc17xx.o(i.USART1_GetModemStatus) refers to uart_lpc17xx.o(.constdata) for USART1_Resources
    uart_lpc17xx.o(i.USART1_GetRxCount) refers to uart_lpc17xx.o(i.USART_GetRxCount) for USART_GetRxCount
    uart_lpc17xx.o(i.USART1_GetRxCount) refers to uart_lpc17xx.o(.constdata) for USART1_Resources
    uart_lpc17xx.o(i.USART1_GetStatus) refers to uart_lpc17xx.o(i.USART_GetStatus) for USART_GetStatus
    uart_lpc17xx.o(i.USART1_GetStatus) refers to uart_lpc17xx.o(.constdata) for USART1_Resources
    uart_lpc17xx.o(i.USART1_GetTxCount) refers to uart_lpc17xx.o(i.USART_GetTxCount) for USART_GetTxCount
    uart_lpc17xx.o(i.USART1_GetTxCount) refers to uart_lpc17xx.o(.constdata) for USART1_Resources
    uart_lpc17xx.o(i.USART1_Initialize) refers to uart_lpc17xx.o(i.USART_Initialize) for USART_Initialize
    uart_lpc17xx.o(i.USART1_Initialize) refers to uart_lpc17xx.o(.constdata) for USART1_Resources
    uart_lpc17xx.o(i.USART1_PowerControl) refers to uart_lpc17xx.o(i.USART_PowerControl) for USART_PowerControl
    uart_lpc17xx.o(i.USART1_PowerControl) refers to uart_lpc17xx.o(.constdata) for USART1_Resources
    uart_lpc17xx.o(i.USART1_Receive) refers to uart_lpc17xx.o(i.USART_Receive) for USART_Receive
    uart_lpc17xx.o(i.USART1_Receive) refers to uart_lpc17xx.o(.constdata) for USART1_Resources
    uart_lpc17xx.o(i.USART1_Send) refers to uart_lpc17xx.o(i.USART_Send) for USART_Send
    uart_lpc17xx.o(i.USART1_Send) refers to uart_lpc17xx.o(.constdata) for USART1_Resources
    uart_lpc17xx.o(i.USART1_SetModemControl) refers to uart_lpc17xx.o(i.USART_SetModemControl) for USART_SetModemControl
    uart_lpc17xx.o(i.USART1_SetModemControl) refers to uart_lpc17xx.o(.constdata) for USART1_Resources
    uart_lpc17xx.o(i.USART1_Transfer) refers to uart_lpc17xx.o(i.USART_Transfer) for USART_Transfer
    uart_lpc17xx.o(i.USART1_Transfer) refers to uart_lpc17xx.o(.constdata) for USART1_Resources
    uart_lpc17xx.o(i.USART1_Uninitialize) refers to uart_lpc17xx.o(i.USART_Uninitialize) for USART_Uninitialize
    uart_lpc17xx.o(i.USART1_Uninitialize) refers to uart_lpc17xx.o(.constdata) for USART1_Resources
    uart_lpc17xx.o(i.USART_Control) refers to pin_lpc17xx.o(i.PIN_Configure) for PIN_Configure
    uart_lpc17xx.o(i.USART_Control) refers to gpdma_lpc17xx.o(i.GPDMA_ChannelDisable) for GPDMA_ChannelDisable
    uart_lpc17xx.o(i.USART_Control) refers to uart_lpc17xx.o(i.GetUsartClockFreq) for GetUsartClockFreq
    uart_lpc17xx.o(i.USART_Control) refers to uart_lpc17xx.o(i.USART_SetBaudrate) for USART_SetBaudrate
    uart_lpc17xx.o(i.USART_GetRxCount) refers to gpdma_lpc17xx.o(i.GPDMA_ChannelGetCount) for GPDMA_ChannelGetCount
    uart_lpc17xx.o(i.USART_GetTxCount) refers to gpdma_lpc17xx.o(i.GPDMA_ChannelGetCount) for GPDMA_ChannelGetCount
    uart_lpc17xx.o(i.USART_IRQHandler) refers to uart_lpc17xx.o(i.USART_RxLineIntHandler) for USART_RxLineIntHandler
    uart_lpc17xx.o(i.USART_Initialize) refers to pin_lpc17xx.o(i.PIN_Configure) for PIN_Configure
    uart_lpc17xx.o(i.USART_Initialize) refers to gpdma_lpc17xx.o(i.GPDMA_Initialize) for GPDMA_Initialize
    uart_lpc17xx.o(i.USART_PowerControl) refers to pin_lpc17xx.o(i.PIN_Configure) for PIN_Configure
    uart_lpc17xx.o(i.USART_PowerControl) refers to gpdma_lpc17xx.o(i.GPDMA_ChannelDisable) for GPDMA_ChannelDisable
    uart_lpc17xx.o(i.USART_PowerControl) refers to uart_lpc17xx.o(i.__NVIC_ClearPendingIRQ) for __NVIC_ClearPendingIRQ
    uart_lpc17xx.o(i.USART_Receive) refers to gpdma_lpc17xx.o(i.GPDMA_PeripheralSelect) for GPDMA_PeripheralSelect
    uart_lpc17xx.o(i.USART_Receive) refers to gpdma_lpc17xx.o(i.GPDMA_ChannelConfigure) for GPDMA_ChannelConfigure
    uart_lpc17xx.o(i.USART_Receive) refers to uart_lpc17xx.o(i.USART_Send) for USART_Send
    uart_lpc17xx.o(i.USART_Send) refers to uart_lpc17xx.o(i.USART_Receive) for USART_Receive
    uart_lpc17xx.o(i.USART_Send) refers to gpdma_lpc17xx.o(i.GPDMA_PeripheralSelect) for GPDMA_PeripheralSelect
    uart_lpc17xx.o(i.USART_Send) refers to gpdma_lpc17xx.o(i.GPDMA_ChannelConfigure) for GPDMA_ChannelConfigure
    uart_lpc17xx.o(i.USART_SetBaudrate) refers to uart_lpc17xx.o(i.GetUsartClockFreq) for GetUsartClockFreq
    uart_lpc17xx.o(i.USART_SetBaudrate) refers to uldiv.o(.text) for __aeabi_uldivmod
    uart_lpc17xx.o(i.USART_SetBaudrate) refers to uart_lpc17xx.o(.constdata) for fract_div_lookup_table
    uart_lpc17xx.o(i.USART_Transfer) refers to uart_lpc17xx.o(i.USART_Receive) for USART_Receive
    uart_lpc17xx.o(i.USART_Transfer) refers to uart_lpc17xx.o(i.USART_Send) for USART_Send
    uart_lpc17xx.o(i.USART_Uninitialize) refers to pin_lpc17xx.o(i.PIN_Configure) for PIN_Configure
    uart_lpc17xx.o(i.USART_Uninitialize) refers to gpdma_lpc17xx.o(i.GPDMA_Uninitialize) for GPDMA_Uninitialize
    uart_lpc17xx.o(i.USARTx_GetVersion) refers to uart_lpc17xx.o(.constdata) for usart_driver_version
    uart_lpc17xx.o(.constdata) refers to uart_lpc17xx.o(i.USART0_GPDMA_Tx_Event) for USART0_GPDMA_Tx_Event
    uart_lpc17xx.o(.constdata) refers to uart_lpc17xx.o(i.USART0_GPDMA_Rx_Event) for USART0_GPDMA_Rx_Event
    uart_lpc17xx.o(.constdata) refers to uart_lpc17xx.o(.data) for USART0_pin_tx
    uart_lpc17xx.o(.constdata) refers to uart_lpc17xx.o(.bss) for USART0_Info
    uart_lpc17xx.o(.constdata) refers to uart_lpc17xx.o(i.USART1_GPDMA_Tx_Event) for USART1_GPDMA_Tx_Event
    uart_lpc17xx.o(.constdata) refers to uart_lpc17xx.o(i.USART1_GPDMA_Rx_Event) for USART1_GPDMA_Rx_Event
    uart_lpc17xx.o(.constdata) refers to uart_lpc17xx.o(i.USARTx_GetVersion) for USARTx_GetVersion
    uart_lpc17xx.o(.constdata) refers to uart_lpc17xx.o(i.USART0_GetCapabilities) for USART0_GetCapabilities
    uart_lpc17xx.o(.constdata) refers to uart_lpc17xx.o(i.USART0_Initialize) for USART0_Initialize
    uart_lpc17xx.o(.constdata) refers to uart_lpc17xx.o(i.USART0_Uninitialize) for USART0_Uninitialize
    uart_lpc17xx.o(.constdata) refers to uart_lpc17xx.o(i.USART0_PowerControl) for USART0_PowerControl
    uart_lpc17xx.o(.constdata) refers to uart_lpc17xx.o(i.USART0_Send) for USART0_Send
    uart_lpc17xx.o(.constdata) refers to uart_lpc17xx.o(i.USART0_Receive) for USART0_Receive
    uart_lpc17xx.o(.constdata) refers to uart_lpc17xx.o(i.USART0_Transfer) for USART0_Transfer
    uart_lpc17xx.o(.constdata) refers to uart_lpc17xx.o(i.USART0_GetTxCount) for USART0_GetTxCount
    uart_lpc17xx.o(.constdata) refers to uart_lpc17xx.o(i.USART0_GetRxCount) for USART0_GetRxCount
    uart_lpc17xx.o(.constdata) refers to uart_lpc17xx.o(i.USART0_Control) for USART0_Control
    uart_lpc17xx.o(.constdata) refers to uart_lpc17xx.o(i.USART0_GetStatus) for USART0_GetStatus
    uart_lpc17xx.o(.constdata) refers to uart_lpc17xx.o(i.USART0_SetModemControl) for USART0_SetModemControl
    uart_lpc17xx.o(.constdata) refers to uart_lpc17xx.o(i.USART0_GetModemStatus) for USART0_GetModemStatus
    uart_lpc17xx.o(.constdata) refers to uart_lpc17xx.o(i.USART1_GetCapabilities) for USART1_GetCapabilities
    uart_lpc17xx.o(.constdata) refers to uart_lpc17xx.o(i.USART1_Initialize) for USART1_Initialize
    uart_lpc17xx.o(.constdata) refers to uart_lpc17xx.o(i.USART1_Uninitialize) for USART1_Uninitialize
    uart_lpc17xx.o(.constdata) refers to uart_lpc17xx.o(i.USART1_PowerControl) for USART1_PowerControl
    uart_lpc17xx.o(.constdata) refers to uart_lpc17xx.o(i.USART1_Send) for USART1_Send
    uart_lpc17xx.o(.constdata) refers to uart_lpc17xx.o(i.USART1_Receive) for USART1_Receive
    uart_lpc17xx.o(.constdata) refers to uart_lpc17xx.o(i.USART1_Transfer) for USART1_Transfer
    uart_lpc17xx.o(.constdata) refers to uart_lpc17xx.o(i.USART1_GetTxCount) for USART1_GetTxCount
    uart_lpc17xx.o(.constdata) refers to uart_lpc17xx.o(i.USART1_GetRxCount) for USART1_GetRxCount
    uart_lpc17xx.o(.constdata) refers to uart_lpc17xx.o(i.USART1_Control) for USART1_Control
    uart_lpc17xx.o(.constdata) refers to uart_lpc17xx.o(i.USART1_GetStatus) for USART1_GetStatus
    uart_lpc17xx.o(.constdata) refers to uart_lpc17xx.o(i.USART1_SetModemControl) for USART1_SetModemControl
    uart_lpc17xx.o(.constdata) refers to uart_lpc17xx.o(i.USART1_GetModemStatus) for USART1_GetModemStatus
    gpdma_lpc17xx.o(i.Clear_Channel_active_flag) refers to gpdma_lpc17xx.o(.data) for Channel_active
    gpdma_lpc17xx.o(i.DMA_IRQHandler) refers to gpdma_lpc17xx.o(i.Clear_Channel_active_flag) for Clear_Channel_active_flag
    gpdma_lpc17xx.o(i.DMA_IRQHandler) refers to gpdma_lpc17xx.o(.bss) for Channel_info
    gpdma_lpc17xx.o(i.GPDMA_ChannelConfigure) refers to gpdma_lpc17xx.o(i.Set_Channel_active_flag) for Set_Channel_active_flag
    gpdma_lpc17xx.o(i.GPDMA_ChannelConfigure) refers to gpdma_lpc17xx.o(i.Clear_Channel_active_flag) for Clear_Channel_active_flag
    gpdma_lpc17xx.o(i.GPDMA_ChannelConfigure) refers to gpdma_lpc17xx.o(.bss) for Channel_info
    gpdma_lpc17xx.o(i.GPDMA_ChannelDisable) refers to gpdma_lpc17xx.o(i.Clear_Channel_active_flag) for Clear_Channel_active_flag
    gpdma_lpc17xx.o(i.GPDMA_ChannelEnable) refers to gpdma_lpc17xx.o(i.Set_Channel_active_flag) for Set_Channel_active_flag
    gpdma_lpc17xx.o(i.GPDMA_ChannelGetCount) refers to gpdma_lpc17xx.o(.bss) for Channel_info
    gpdma_lpc17xx.o(i.GPDMA_ChannelGetStatus) refers to gpdma_lpc17xx.o(.data) for Channel_active
    gpdma_lpc17xx.o(i.GPDMA_Initialize) refers to gpdma_lpc17xx.o(i.__NVIC_ClearPendingIRQ) for __NVIC_ClearPendingIRQ
    gpdma_lpc17xx.o(i.GPDMA_Initialize) refers to gpdma_lpc17xx.o(.data) for Init_cnt
    gpdma_lpc17xx.o(i.GPDMA_Initialize) refers to gpdma_lpc17xx.o(.bss) for Channel_info
    gpdma_lpc17xx.o(i.GPDMA_Uninitialize) refers to gpdma_lpc17xx.o(i.__NVIC_ClearPendingIRQ) for __NVIC_ClearPendingIRQ
    gpdma_lpc17xx.o(i.GPDMA_Uninitialize) refers to gpdma_lpc17xx.o(.data) for Init_cnt
    gpdma_lpc17xx.o(i.Set_Channel_active_flag) refers to gpdma_lpc17xx.o(.data) for Channel_active
    startup_lpc17xx.o(RESET) refers to startup_lpc17xx.o(STACK) for __initial_sp
    startup_lpc17xx.o(RESET) refers to startup_lpc17xx.o(.text) for Reset_Handler
    startup_lpc17xx.o(RESET) refers to irq_cm3.o(.text) for SVC_Handler
    startup_lpc17xx.o(RESET) refers to uart_lpc17xx.o(i.UART0_IRQHandler) for UART0_IRQHandler
    startup_lpc17xx.o(RESET) refers to uart_lpc17xx.o(i.UART1_IRQHandler) for UART1_IRQHandler
    startup_lpc17xx.o(RESET) refers to i2c_lpc17xx.o(i.I2C1_IRQHandler) for I2C1_IRQHandler
    startup_lpc17xx.o(RESET) refers to gpdma_lpc17xx.o(i.DMA_IRQHandler) for DMA_IRQHandler
    startup_lpc17xx.o(.text) refers to system_lpc17xx.o(i.SystemInit) for SystemInit
    startup_lpc17xx.o(.text) refers to entry.o(.ARM.Collect$$$$00000000) for __main
    system_lpc17xx.o(i.SystemCoreClockUpdate) refers to uldiv.o(.text) for __aeabi_uldivmod
    system_lpc17xx.o(i.SystemCoreClockUpdate) refers to system_lpc17xx.o(.data) for SystemCoreClock
    entry.o(.ARM.Collect$$$$00000000) refers (Special) to entry10a.o(.ARM.Collect$$$$0000000D) for __rt_final_cpp
    entry.o(.ARM.Collect$$$$00000000) refers (Special) to entry11a.o(.ARM.Collect$$$$0000000F) for __rt_final_exit
    entry.o(.ARM.Collect$$$$00000000) refers (Special) to entry7b.o(.ARM.Collect$$$$00000008) for _main_clock
    entry.o(.ARM.Collect$$$$00000000) refers (Special) to entry8b.o(.ARM.Collect$$$$0000000A) for _main_cpp_init
    entry.o(.ARM.Collect$$$$00000000) refers (Special) to entry9a.o(.ARM.Collect$$$$0000000B) for _main_init
    entry.o(.ARM.Collect$$$$00000000) refers (Special) to entry5.o(.ARM.Collect$$$$00000004) for _main_scatterload
    entry.o(.ARM.Collect$$$$00000000) refers (Special) to entry2.o(.ARM.Collect$$$$00000001) for _main_stk
    uldiv.o(.text) refers to llushr.o(.text) for __aeabi_llsr
    uldiv.o(.text) refers to llshl.o(.text) for __aeabi_llsl
    printfb.o(i.__0fprintf$bare) refers to printfb.o(i._printf_core) for _printf_core
    printfb.o(i.__0fprintf$bare) refers to fputc.o(i.fputc) for fputc
    printfb.o(i.__0printf$bare) refers to printfb.o(i._printf_core) for _printf_core
    printfb.o(i.__0printf$bare) refers to fputc.o(i.fputc) for fputc
    printfb.o(i.__0printf$bare) refers to stdout.o(.data) for __stdout
    printfb.o(i.__0snprintf$bare) refers to printfb.o(i._printf_core) for _printf_core
    printfb.o(i.__0snprintf$bare) refers to printfb.o(i._snputc) for _snputc
    printfb.o(i.__0sprintf$bare) refers to printfb.o(i._printf_core) for _printf_core
    printfb.o(i.__0sprintf$bare) refers to printfb.o(i._sputc) for _sputc
    printfb.o(i.__0vfprintf$bare) refers to printfb.o(i._printf_core) for _printf_core
    printfb.o(i.__0vfprintf$bare) refers to fputc.o(i.fputc) for fputc
    printfb.o(i.__0vprintf$bare) refers to printfb.o(i._printf_core) for _printf_core
    printfb.o(i.__0vprintf$bare) refers to fputc.o(i.fputc) for fputc
    printfb.o(i.__0vprintf$bare) refers to stdout.o(.data) for __stdout
    printfb.o(i.__0vsnprintf$bare) refers to printfb.o(i._printf_core) for _printf_core
    printfb.o(i.__0vsnprintf$bare) refers to printfb.o(i._snputc) for _snputc
    printfb.o(i.__0vsprintf$bare) refers to printfb.o(i._printf_core) for _printf_core
    printfb.o(i.__0vsprintf$bare) refers to printfb.o(i._sputc) for _sputc
    printf0.o(i.__0fprintf$0) refers to printf0.o(i._printf_core) for _printf_core
    printf0.o(i.__0fprintf$0) refers to fputc.o(i.fputc) for fputc
    printf0.o(i.__0printf$0) refers to printf0.o(i._printf_core) for _printf_core
    printf0.o(i.__0printf$0) refers to fputc.o(i.fputc) for fputc
    printf0.o(i.__0printf$0) refers to stdout.o(.data) for __stdout
    printf0.o(i.__0snprintf$0) refers to printf0.o(i._printf_core) for _printf_core
    printf0.o(i.__0snprintf$0) refers to printf0.o(i._snputc) for _snputc
    printf0.o(i.__0sprintf$0) refers to printf0.o(i._printf_core) for _printf_core
    printf0.o(i.__0sprintf$0) refers to printf0.o(i._sputc) for _sputc
    printf0.o(i.__0vfprintf$0) refers to printf0.o(i._printf_core) for _printf_core
    printf0.o(i.__0vfprintf$0) refers to fputc.o(i.fputc) for fputc
    printf0.o(i.__0vprintf$0) refers to printf0.o(i._printf_core) for _printf_core
    printf0.o(i.__0vprintf$0) refers to fputc.o(i.fputc) for fputc
    printf0.o(i.__0vprintf$0) refers to stdout.o(.data) for __stdout
    printf0.o(i.__0vsnprintf$0) refers to printf0.o(i._printf_core) for _printf_core
    printf0.o(i.__0vsnprintf$0) refers to printf0.o(i._snputc) for _snputc
    printf0.o(i.__0vsprintf$0) refers to printf0.o(i._printf_core) for _printf_core
    printf0.o(i.__0vsprintf$0) refers to printf0.o(i._sputc) for _sputc
    printf1.o(i.__0fprintf$1) refers to printf1.o(i._printf_core) for _printf_core
    printf1.o(i.__0fprintf$1) refers to fputc.o(i.fputc) for fputc
    printf1.o(i.__0printf$1) refers to printf1.o(i._printf_core) for _printf_core
    printf1.o(i.__0printf$1) refers to fputc.o(i.fputc) for fputc
    printf1.o(i.__0printf$1) refers to stdout.o(.data) for __stdout
    printf1.o(i.__0snprintf$1) refers to printf1.o(i._printf_core) for _printf_core
    printf1.o(i.__0snprintf$1) refers to printf1.o(i._snputc) for _snputc
    printf1.o(i.__0sprintf$1) refers to printf1.o(i._printf_core) for _printf_core
    printf1.o(i.__0sprintf$1) refers to printf1.o(i._sputc) for _sputc
    printf1.o(i.__0vfprintf$1) refers to printf1.o(i._printf_core) for _printf_core
    printf1.o(i.__0vfprintf$1) refers to fputc.o(i.fputc) for fputc
    printf1.o(i.__0vprintf$1) refers to printf1.o(i._printf_core) for _printf_core
    printf1.o(i.__0vprintf$1) refers to fputc.o(i.fputc) for fputc
    printf1.o(i.__0vprintf$1) refers to stdout.o(.data) for __stdout
    printf1.o(i.__0vsnprintf$1) refers to printf1.o(i._printf_core) for _printf_core
    printf1.o(i.__0vsnprintf$1) refers to printf1.o(i._snputc) for _snputc
    printf1.o(i.__0vsprintf$1) refers to printf1.o(i._printf_core) for _printf_core
    printf1.o(i.__0vsprintf$1) refers to printf1.o(i._sputc) for _sputc
    printf1.o(i._printf_core) refers to uidiv.o(.text) for __aeabi_uidivmod
    printf2.o(i.__0fprintf$2) refers to printf2.o(i._printf_core) for _printf_core
    printf2.o(i.__0fprintf$2) refers to fputc.o(i.fputc) for fputc
    printf2.o(i.__0printf$2) refers to printf2.o(i._printf_core) for _printf_core
    printf2.o(i.__0printf$2) refers to fputc.o(i.fputc) for fputc
    printf2.o(i.__0printf$2) refers to stdout.o(.data) for __stdout
    printf2.o(i.__0snprintf$2) refers to printf2.o(i._printf_core) for _printf_core
    printf2.o(i.__0snprintf$2) refers to printf2.o(i._snputc) for _snputc
    printf2.o(i.__0sprintf$2) refers to printf2.o(i._printf_core) for _printf_core
    printf2.o(i.__0sprintf$2) refers to printf2.o(i._sputc) for _sputc
    printf2.o(i.__0vfprintf$2) refers to printf2.o(i._printf_core) for _printf_core
    printf2.o(i.__0vfprintf$2) refers to fputc.o(i.fputc) for fputc
    printf2.o(i.__0vprintf$2) refers to printf2.o(i._printf_core) for _printf_core
    printf2.o(i.__0vprintf$2) refers to fputc.o(i.fputc) for fputc
    printf2.o(i.__0vprintf$2) refers to stdout.o(.data) for __stdout
    printf2.o(i.__0vsnprintf$2) refers to printf2.o(i._printf_core) for _printf_core
    printf2.o(i.__0vsnprintf$2) refers to printf2.o(i._snputc) for _snputc
    printf2.o(i.__0vsprintf$2) refers to printf2.o(i._printf_core) for _printf_core
    printf2.o(i.__0vsprintf$2) refers to printf2.o(i._sputc) for _sputc
    printf3.o(i.__0fprintf$3) refers to printf3.o(i._printf_core) for _printf_core
    printf3.o(i.__0fprintf$3) refers to fputc.o(i.fputc) for fputc
    printf3.o(i.__0printf$3) refers to printf3.o(i._printf_core) for _printf_core
    printf3.o(i.__0printf$3) refers to fputc.o(i.fputc) for fputc
    printf3.o(i.__0printf$3) refers to stdout.o(.data) for __stdout
    printf3.o(i.__0snprintf$3) refers to printf3.o(i._printf_core) for _printf_core
    printf3.o(i.__0snprintf$3) refers to printf3.o(i._snputc) for _snputc
    printf3.o(i.__0sprintf$3) refers to printf3.o(i._printf_core) for _printf_core
    printf3.o(i.__0sprintf$3) refers to printf3.o(i._sputc) for _sputc
    printf3.o(i.__0vfprintf$3) refers to printf3.o(i._printf_core) for _printf_core
    printf3.o(i.__0vfprintf$3) refers to fputc.o(i.fputc) for fputc
    printf3.o(i.__0vprintf$3) refers to printf3.o(i._printf_core) for _printf_core
    printf3.o(i.__0vprintf$3) refers to fputc.o(i.fputc) for fputc
    printf3.o(i.__0vprintf$3) refers to stdout.o(.data) for __stdout
    printf3.o(i.__0vsnprintf$3) refers to printf3.o(i._printf_core) for _printf_core
    printf3.o(i.__0vsnprintf$3) refers to printf3.o(i._snputc) for _snputc
    printf3.o(i.__0vsprintf$3) refers to printf3.o(i._printf_core) for _printf_core
    printf3.o(i.__0vsprintf$3) refers to printf3.o(i._sputc) for _sputc
    printf3.o(i._printf_core) refers to uidiv.o(.text) for __aeabi_uidivmod
    printf4.o(i.__0fprintf$4) refers to printf4.o(i._printf_core) for _printf_core
    printf4.o(i.__0fprintf$4) refers to fputc.o(i.fputc) for fputc
    printf4.o(i.__0printf$4) refers to printf4.o(i._printf_core) for _printf_core
    printf4.o(i.__0printf$4) refers to fputc.o(i.fputc) for fputc
    printf4.o(i.__0printf$4) refers to stdout.o(.data) for __stdout
    printf4.o(i.__0snprintf$4) refers to printf4.o(i._printf_core) for _printf_core
    printf4.o(i.__0snprintf$4) refers to printf4.o(i._snputc) for _snputc
    printf4.o(i.__0sprintf$4) refers to printf4.o(i._printf_core) for _printf_core
    printf4.o(i.__0sprintf$4) refers to printf4.o(i._sputc) for _sputc
    printf4.o(i.__0vfprintf$4) refers to printf4.o(i._printf_core) for _printf_core
    printf4.o(i.__0vfprintf$4) refers to fputc.o(i.fputc) for fputc
    printf4.o(i.__0vprintf$4) refers to printf4.o(i._printf_core) for _printf_core
    printf4.o(i.__0vprintf$4) refers to fputc.o(i.fputc) for fputc
    printf4.o(i.__0vprintf$4) refers to stdout.o(.data) for __stdout
    printf4.o(i.__0vsnprintf$4) refers to printf4.o(i._printf_core) for _printf_core
    printf4.o(i.__0vsnprintf$4) refers to printf4.o(i._snputc) for _snputc
    printf4.o(i.__0vsprintf$4) refers to printf4.o(i._printf_core) for _printf_core
    printf4.o(i.__0vsprintf$4) refers to printf4.o(i._sputc) for _sputc
    printf4.o(i._printf_core) refers to uldiv.o(.text) for __aeabi_uldivmod
    printf5.o(i.__0fprintf$5) refers to printf5.o(i._printf_core) for _printf_core
    printf5.o(i.__0fprintf$5) refers to fputc.o(i.fputc) for fputc
    printf5.o(i.__0printf$5) refers to printf5.o(i._printf_core) for _printf_core
    printf5.o(i.__0printf$5) refers to fputc.o(i.fputc) for fputc
    printf5.o(i.__0printf$5) refers to stdout.o(.data) for __stdout
    printf5.o(i.__0snprintf$5) refers to printf5.o(i._printf_core) for _printf_core
    printf5.o(i.__0snprintf$5) refers to printf5.o(i._snputc) for _snputc
    printf5.o(i.__0sprintf$5) refers to printf5.o(i._printf_core) for _printf_core
    printf5.o(i.__0sprintf$5) refers to printf5.o(i._sputc) for _sputc
    printf5.o(i.__0vfprintf$5) refers to printf5.o(i._printf_core) for _printf_core
    printf5.o(i.__0vfprintf$5) refers to fputc.o(i.fputc) for fputc
    printf5.o(i.__0vprintf$5) refers to printf5.o(i._printf_core) for _printf_core
    printf5.o(i.__0vprintf$5) refers to fputc.o(i.fputc) for fputc
    printf5.o(i.__0vprintf$5) refers to stdout.o(.data) for __stdout
    printf5.o(i.__0vsnprintf$5) refers to printf5.o(i._printf_core) for _printf_core
    printf5.o(i.__0vsnprintf$5) refers to printf5.o(i._snputc) for _snputc
    printf5.o(i.__0vsprintf$5) refers to printf5.o(i._printf_core) for _printf_core
    printf5.o(i.__0vsprintf$5) refers to printf5.o(i._sputc) for _sputc
    printf5.o(i._printf_core) refers to uldiv.o(.text) for __aeabi_uldivmod
    printf6.o(i.__0fprintf$6) refers to printf6.o(i._printf_core) for _printf_core
    printf6.o(i.__0fprintf$6) refers to fputc.o(i.fputc) for fputc
    printf6.o(i.__0printf$6) refers to printf6.o(i._printf_core) for _printf_core
    printf6.o(i.__0printf$6) refers to fputc.o(i.fputc) for fputc
    printf6.o(i.__0printf$6) refers to stdout.o(.data) for __stdout
    printf6.o(i.__0snprintf$6) refers to printf6.o(i._printf_core) for _printf_core
    printf6.o(i.__0snprintf$6) refers to printf6.o(i._snputc) for _snputc
    printf6.o(i.__0sprintf$6) refers to printf6.o(i._printf_core) for _printf_core
    printf6.o(i.__0sprintf$6) refers to printf6.o(i._sputc) for _sputc
    printf6.o(i.__0vfprintf$6) refers to printf6.o(i._printf_core) for _printf_core
    printf6.o(i.__0vfprintf$6) refers to fputc.o(i.fputc) for fputc
    printf6.o(i.__0vprintf$6) refers to printf6.o(i._printf_core) for _printf_core
    printf6.o(i.__0vprintf$6) refers to fputc.o(i.fputc) for fputc
    printf6.o(i.__0vprintf$6) refers to stdout.o(.data) for __stdout
    printf6.o(i.__0vsnprintf$6) refers to printf6.o(i._printf_core) for _printf_core
    printf6.o(i.__0vsnprintf$6) refers to printf6.o(i._snputc) for _snputc
    printf6.o(i.__0vsprintf$6) refers to printf6.o(i._printf_core) for _printf_core
    printf6.o(i.__0vsprintf$6) refers to printf6.o(i._sputc) for _sputc
    printf6.o(i._printf_core) refers to printf6.o(i._printf_pre_padding) for _printf_pre_padding
    printf6.o(i._printf_core) refers to uidiv.o(.text) for __aeabi_uidivmod
    printf6.o(i._printf_core) refers to printf6.o(i._printf_post_padding) for _printf_post_padding
    printf7.o(i.__0fprintf$7) refers to printf7.o(i._printf_core) for _printf_core
    printf7.o(i.__0fprintf$7) refers to fputc.o(i.fputc) for fputc
    printf7.o(i.__0printf$7) refers to printf7.o(i._printf_core) for _printf_core
    printf7.o(i.__0printf$7) refers to fputc.o(i.fputc) for fputc
    printf7.o(i.__0printf$7) refers to stdout.o(.data) for __stdout
    printf7.o(i.__0snprintf$7) refers to printf7.o(i._printf_core) for _printf_core
    printf7.o(i.__0snprintf$7) refers to printf7.o(i._snputc) for _snputc
    printf7.o(i.__0sprintf$7) refers to printf7.o(i._printf_core) for _printf_core
    printf7.o(i.__0sprintf$7) refers to printf7.o(i._sputc) for _sputc
    printf7.o(i.__0vfprintf$7) refers to printf7.o(i._printf_core) for _printf_core
    printf7.o(i.__0vfprintf$7) refers to fputc.o(i.fputc) for fputc
    printf7.o(i.__0vprintf$7) refers to printf7.o(i._printf_core) for _printf_core
    printf7.o(i.__0vprintf$7) refers to fputc.o(i.fputc) for fputc
    printf7.o(i.__0vprintf$7) refers to stdout.o(.data) for __stdout
    printf7.o(i.__0vsnprintf$7) refers to printf7.o(i._printf_core) for _printf_core
    printf7.o(i.__0vsnprintf$7) refers to printf7.o(i._snputc) for _snputc
    printf7.o(i.__0vsprintf$7) refers to printf7.o(i._printf_core) for _printf_core
    printf7.o(i.__0vsprintf$7) refers to printf7.o(i._sputc) for _sputc
    printf7.o(i._printf_core) refers to printf7.o(i._printf_pre_padding) for _printf_pre_padding
    printf7.o(i._printf_core) refers to uldiv.o(.text) for __aeabi_uldivmod
    printf7.o(i._printf_core) refers to printf7.o(i._printf_post_padding) for _printf_post_padding
    printf8.o(i.__0fprintf$8) refers to printf8.o(i._printf_core) for _printf_core
    printf8.o(i.__0fprintf$8) refers to fputc.o(i.fputc) for fputc
    printf8.o(i.__0printf$8) refers to printf8.o(i._printf_core) for _printf_core
    printf8.o(i.__0printf$8) refers to fputc.o(i.fputc) for fputc
    printf8.o(i.__0printf$8) refers to stdout.o(.data) for __stdout
    printf8.o(i.__0snprintf$8) refers to printf8.o(i._printf_core) for _printf_core
    printf8.o(i.__0snprintf$8) refers to printf8.o(i._snputc) for _snputc
    printf8.o(i.__0sprintf$8) refers to printf8.o(i._printf_core) for _printf_core
    printf8.o(i.__0sprintf$8) refers to printf8.o(i._sputc) for _sputc
    printf8.o(i.__0vfprintf$8) refers to printf8.o(i._printf_core) for _printf_core
    printf8.o(i.__0vfprintf$8) refers to fputc.o(i.fputc) for fputc
    printf8.o(i.__0vprintf$8) refers to printf8.o(i._printf_core) for _printf_core
    printf8.o(i.__0vprintf$8) refers to fputc.o(i.fputc) for fputc
    printf8.o(i.__0vprintf$8) refers to stdout.o(.data) for __stdout
    printf8.o(i.__0vsnprintf$8) refers to printf8.o(i._printf_core) for _printf_core
    printf8.o(i.__0vsnprintf$8) refers to printf8.o(i._snputc) for _snputc
    printf8.o(i.__0vsprintf$8) refers to printf8.o(i._printf_core) for _printf_core
    printf8.o(i.__0vsprintf$8) refers to printf8.o(i._sputc) for _sputc
    printf8.o(i._printf_core) refers to printf8.o(i._printf_pre_padding) for _printf_pre_padding
    printf8.o(i._printf_core) refers to uldiv.o(.text) for __aeabi_uldivmod
    printf8.o(i._printf_core) refers to printf8.o(i._printf_post_padding) for _printf_post_padding
    printfa.o(i.__0fprintf) refers (Special) to iusefp.o(.text) for __I$use$fp
    printfa.o(i.__0fprintf) refers to printfa.o(i._printf_core) for _printf_core
    printfa.o(i.__0fprintf) refers to fputc.o(i.fputc) for fputc
    printfa.o(i.__0printf) refers (Special) to iusefp.o(.text) for __I$use$fp
    printfa.o(i.__0printf) refers to printfa.o(i._printf_core) for _printf_core
    printfa.o(i.__0printf) refers to fputc.o(i.fputc) for fputc
    printfa.o(i.__0printf) refers to stdout.o(.data) for __stdout
    printfa.o(i.__0snprintf) refers (Special) to iusefp.o(.text) for __I$use$fp
    printfa.o(i.__0snprintf) refers to printfa.o(i._printf_core) for _printf_core
    printfa.o(i.__0snprintf) refers to printfa.o(i._snputc) for _snputc
    printfa.o(i.__0sprintf) refers (Special) to iusefp.o(.text) for __I$use$fp
    printfa.o(i.__0sprintf) refers to printfa.o(i._printf_core) for _printf_core
    printfa.o(i.__0sprintf) refers to printfa.o(i._sputc) for _sputc
    printfa.o(i.__0vfprintf) refers (Special) to iusefp.o(.text) for __I$use$fp
    printfa.o(i.__0vfprintf) refers to printfa.o(i._printf_core) for _printf_core
    printfa.o(i.__0vfprintf) refers to fputc.o(i.fputc) for fputc
    printfa.o(i.__0vprintf) refers (Special) to iusefp.o(.text) for __I$use$fp
    printfa.o(i.__0vprintf) refers to printfa.o(i._printf_core) for _printf_core
    printfa.o(i.__0vprintf) refers to fputc.o(i.fputc) for fputc
    printfa.o(i.__0vprintf) refers to stdout.o(.data) for __stdout
    printfa.o(i.__0vsnprintf) refers (Special) to iusefp.o(.text) for __I$use$fp
    printfa.o(i.__0vsnprintf) refers to printfa.o(i._printf_core) for _printf_core
    printfa.o(i.__0vsnprintf) refers to printfa.o(i._snputc) for _snputc
    printfa.o(i.__0vsprintf) refers (Special) to iusefp.o(.text) for __I$use$fp
    printfa.o(i.__0vsprintf) refers to printfa.o(i._printf_core) for _printf_core
    printfa.o(i.__0vsprintf) refers to printfa.o(i._sputc) for _sputc
    printfa.o(i._fp_digits) refers (Special) to iusefp.o(.text) for __I$use$fp
    printfa.o(i._fp_digits) refers to dmul.o(.text) for __aeabi_dmul
    printfa.o(i._fp_digits) refers to ddiv.o(.text) for __aeabi_ddiv
    printfa.o(i._fp_digits) refers to cdrcmple.o(.text) for __aeabi_cdrcmple
    printfa.o(i._fp_digits) refers to dadd.o(.text) for __aeabi_dadd
    printfa.o(i._fp_digits) refers to dfixul.o(.text) for __aeabi_d2ulz
    printfa.o(i._fp_digits) refers to uldiv.o(.text) for __aeabi_uldivmod
    printfa.o(i._printf_core) refers (Special) to iusefp.o(.text) for __I$use$fp
    printfa.o(i._printf_core) refers to printfa.o(i._printf_pre_padding) for _printf_pre_padding
    printfa.o(i._printf_core) refers to uldiv.o(.text) for __aeabi_uldivmod
    printfa.o(i._printf_core) refers to printfa.o(i._printf_post_padding) for _printf_post_padding
    printfa.o(i._printf_core) refers to printfa.o(i._fp_digits) for _fp_digits
    printfa.o(i._printf_core) refers to uidiv.o(.text) for __aeabi_uidivmod
    printfa.o(i._printf_post_padding) refers (Special) to iusefp.o(.text) for __I$use$fp
    printfa.o(i._printf_pre_padding) refers (Special) to iusefp.o(.text) for __I$use$fp
    printfa.o(i._snputc) refers (Special) to iusefp.o(.text) for __I$use$fp
    printfa.o(i._sputc) refers (Special) to iusefp.o(.text) for __I$use$fp
    fadd.o(.text) refers (Special) to iusefp.o(.text) for __I$use$fp
    fadd.o(.text) refers to fepilogue.o(.text) for _float_epilogue
    fmul.o(.text) refers (Special) to iusefp.o(.text) for __I$use$fp
    fdiv.o(.text) refers (Special) to iusefp.o(.text) for __I$use$fp
    fdiv.o(.text) refers to fepilogue.o(.text) for _float_round
    fflti.o(.text) refers (Special) to iusefp.o(.text) for __I$use$fp
    fflti.o(.text) refers to fepilogue.o(.text) for _float_epilogue
    ffixui.o(.text) refers (Special) to iusefp.o(.text) for __I$use$fp
    entry2.o(.ARM.Collect$$$$00000001) refers to entry2.o(.ARM.Collect$$$$00002712) for __lit__00000000
    entry2.o(.ARM.Collect$$$$00002712) refers to startup_lpc17xx.o(STACK) for __initial_sp
    entry2.o(__vectab_stack_and_reset_area) refers to startup_lpc17xx.o(STACK) for __initial_sp
    entry2.o(__vectab_stack_and_reset_area) refers to entry.o(.ARM.Collect$$$$00000000) for __main
    entry5.o(.ARM.Collect$$$$00000004) refers to init.o(.text) for __scatterload
    entry9a.o(.ARM.Collect$$$$0000000B) refers to main.o(i.main) for main
    entry9b.o(.ARM.Collect$$$$0000000C) refers to main.o(i.main) for main
    fputc.o(i.fputc) refers (Special) to iusesemip.o(.text) for __I$use$semihosting$fputc
    fputc.o(i.fputc) refers (Special) to semi.o(.text) for __semihosting_library_function
    dadd.o(.text) refers to llshl.o(.text) for __aeabi_llsl
    dadd.o(.text) refers to llsshr.o(.text) for __aeabi_lasr
    dadd.o(.text) refers to depilogue.o(.text) for _double_epilogue
    dmul.o(.text) refers to depilogue.o(.text) for _double_epilogue
    ddiv.o(.text) refers to depilogue.o(.text) for _double_round
    dfixul.o(.text) refers to llushr.o(.text) for __aeabi_llsr
    dfixul.o(.text) refers to llshl.o(.text) for __aeabi_llsl
    init.o(.text) refers to entry5.o(.ARM.Collect$$$$00000004) for __main_after_scatterload
    depilogue.o(.text) refers to llshl.o(.text) for __aeabi_llsl
    depilogue.o(.text) refers to llushr.o(.text) for __aeabi_llsr


==============================================================================

Removing Unused input sections from the image.

    Removing main.o(.rev16_text), (4 bytes).
    Removing main.o(.revsh_text), (4 bytes).
    Removing main.o(.rrx_text), (6 bytes).
    Removing main.o(i._Z14USART_callbackj), (54 bytes).
    Removing main.o(i._Z15uart0Initializev), (76 bytes).
    Removing main.o(i._Z15uart1Initializev), (84 bytes).
    Removing main.o(i._Z16__NVIC_EnableIRQ4IRQn), (26 bytes).
    Removing main.o(i._Z17uart0UnInitializev), (16 bytes).
    Removing main.o(i._Z17uart1UnInitializev), (16 bytes).
    Removing main.o(.ARM.exidx), (8 bytes).
    Removing main.o(.ARM.exidx), (8 bytes).
    Removing main.o(.ARM.exidx), (8 bytes).
    Removing main.o(.ARM.exidx), (8 bytes).
    Removing main.o(.ARM.exidx), (8 bytes).
    Removing main.o(.ARM.exidx), (8 bytes).
    Removing main.o(.ARM.exidx), (8 bytes).
    Removing main.o(.ARM.exidx), (8 bytes).
    Removing main.o(.ARM.exidx), (8 bytes).
    Removing main.o(.ARM.exidx), (8 bytes).
    Removing main.o(.ARM.exidx), (8 bytes).
    Removing main.o(.ARM.exidx), (8 bytes).
    Removing main.o(.ARM.exidx), (8 bytes).
    Removing main.o(.ARM.exidx), (8 bytes).
    Removing main.o(.ARM.exidx), (8 bytes).
    Removing itm_arm.o(i._Z10itmPrintlnPc), (72 bytes).
    Removing itm_arm.o(i._Z11itmPrintInti), (32 bytes).
    Removing itm_arm.o(i._Z13itmPrintlnInti), (32 bytes).
    Removing itm_arm.o(i._Z8itmPrintPc), (32 bytes).
    Removing itm_arm.o(.ARM.exidx), (8 bytes).
    Removing itm_arm.o(.ARM.exidx), (8 bytes).
    Removing itm_arm.o(.ARM.exidx), (8 bytes).
    Removing itm_arm.o(.ARM.exidx), (8 bytes).
    Removing ringbuffer.o(i._ZN10RingBuffer14ringBufferReadEPc), (48 bytes).
    Removing ringbuffer.o(i._ZN10RingBuffer15ringBufferWriteEc), (52 bytes).
    Removing ringbuffer.o(i._ZN10RingBuffer20ringBufferStringReadEPc), (78 bytes).
    Removing ringbuffer.o(i._ZN10RingBuffer21ringBufferStringWriteEPc), (68 bytes).
    Removing ringbuffer.o(.ARM.exidx), (8 bytes).
    Removing ringbuffer.o(.ARM.exidx), (8 bytes).
    Removing ringbuffer.o(.ARM.exidx), (8 bytes).
    Removing ringbuffer.o(.ARM.exidx), (8 bytes).
    Removing irq_cm3.o(.constdata), (1 bytes).
    Removing rtx_delay.o(.rev16_text), (4 bytes).
    Removing rtx_delay.o(.revsh_text), (4 bytes).
    Removing rtx_delay.o(.rrx_text), (6 bytes).
    Removing rtx_delay.o(.emb_text), (340 bytes).
    Removing rtx_delay.o(i.osDelayUntil), (68 bytes).
    Removing rtx_delay.o(i.svcRtxDelayUntil), (52 bytes).
    Removing rtx_evflags.o(.rev16_text), (4 bytes).
    Removing rtx_evflags.o(.revsh_text), (4 bytes).
    Removing rtx_evflags.o(.rrx_text), (6 bytes).
    Removing rtx_evflags.o(.emb_text), (340 bytes).
    Removing rtx_evflags.o(i.EventFlagsCheck), (86 bytes).
    Removing rtx_evflags.o(i.EventFlagsClear), (22 bytes).
    Removing rtx_evflags.o(i.EventFlagsSet), (22 bytes).
    Removing rtx_evflags.o(i.__get_BASEPRI), (6 bytes).
    Removing rtx_evflags.o(i.__get_IPSR), (6 bytes).
    Removing rtx_evflags.o(i.__get_PRIMASK), (6 bytes).
    Removing rtx_evflags.o(i.isrRtxEventFlagsWait), (118 bytes).
    Removing rtx_evflags.o(i.osEventFlagsClear), (64 bytes).
    Removing rtx_evflags.o(i.osEventFlagsDelete), (64 bytes).
    Removing rtx_evflags.o(i.osEventFlagsGet), (48 bytes).
    Removing rtx_evflags.o(i.osEventFlagsGetName), (52 bytes).
    Removing rtx_evflags.o(i.osEventFlagsNew), (96 bytes).
    Removing rtx_evflags.o(i.osEventFlagsSet), (140 bytes).
    Removing rtx_evflags.o(i.osEventFlagsWait), (84 bytes).
    Removing rtx_evflags.o(i.osRtxEventFlagsPostProcess), (76 bytes).
    Removing rtx_evflags.o(i.svcRtxEventFlagsClear), (84 bytes).
    Removing rtx_evflags.o(i.svcRtxEventFlagsDelete), (144 bytes).
    Removing rtx_evflags.o(i.svcRtxEventFlagsGet), (54 bytes).
    Removing rtx_evflags.o(i.svcRtxEventFlagsGetName), (54 bytes).
    Removing rtx_evflags.o(i.svcRtxEventFlagsNew), (168 bytes).
    Removing rtx_evflags.o(i.svcRtxEventFlagsSet), (170 bytes).
    Removing rtx_evflags.o(i.svcRtxEventFlagsWait), (188 bytes).
    Removing rtx_evr.o(.rev16_text), (4 bytes).
    Removing rtx_evr.o(.revsh_text), (4 bytes).
    Removing rtx_evr.o(.rrx_text), (6 bytes).
    Removing rtx_evr.o(i.EvrRtxEventFlagsClear), (2 bytes).
    Removing rtx_evr.o(i.EvrRtxEventFlagsClearDone), (2 bytes).
    Removing rtx_evr.o(i.EvrRtxEventFlagsCreated), (2 bytes).
    Removing rtx_evr.o(i.EvrRtxEventFlagsDelete), (2 bytes).
    Removing rtx_evr.o(i.EvrRtxEventFlagsDestroyed), (2 bytes).
    Removing rtx_evr.o(i.EvrRtxEventFlagsError), (2 bytes).
    Removing rtx_evr.o(i.EvrRtxEventFlagsGet), (2 bytes).
    Removing rtx_evr.o(i.EvrRtxEventFlagsGetName), (2 bytes).
    Removing rtx_evr.o(i.EvrRtxEventFlagsNew), (2 bytes).
    Removing rtx_evr.o(i.EvrRtxEventFlagsSet), (2 bytes).
    Removing rtx_evr.o(i.EvrRtxEventFlagsSetDone), (2 bytes).
    Removing rtx_evr.o(i.EvrRtxEventFlagsWait), (2 bytes).
    Removing rtx_evr.o(i.EvrRtxEventFlagsWaitCompleted), (2 bytes).
    Removing rtx_evr.o(i.EvrRtxEventFlagsWaitNotCompleted), (2 bytes).
    Removing rtx_evr.o(i.EvrRtxEventFlagsWaitPending), (2 bytes).
    Removing rtx_evr.o(i.EvrRtxKernelGetInfo), (2 bytes).
    Removing rtx_evr.o(i.EvrRtxKernelGetState), (2 bytes).
    Removing rtx_evr.o(i.EvrRtxKernelGetSysTimerCount), (2 bytes).
    Removing rtx_evr.o(i.EvrRtxKernelGetSysTimerFreq), (2 bytes).
    Removing rtx_evr.o(i.EvrRtxKernelGetTickCount), (2 bytes).
    Removing rtx_evr.o(i.EvrRtxKernelGetTickFreq), (2 bytes).
    Removing rtx_evr.o(i.EvrRtxKernelInfoRetrieved), (2 bytes).
    Removing rtx_evr.o(i.EvrRtxKernelLock), (2 bytes).
    Removing rtx_evr.o(i.EvrRtxKernelLockRestored), (2 bytes).
    Removing rtx_evr.o(i.EvrRtxKernelLocked), (2 bytes).
    Removing rtx_evr.o(i.EvrRtxKernelRestoreLock), (2 bytes).
    Removing rtx_evr.o(i.EvrRtxKernelResume), (2 bytes).
    Removing rtx_evr.o(i.EvrRtxKernelResumed), (2 bytes).
    Removing rtx_evr.o(i.EvrRtxKernelSuspend), (2 bytes).
    Removing rtx_evr.o(i.EvrRtxKernelSuspended), (2 bytes).
    Removing rtx_evr.o(i.EvrRtxKernelUnlock), (2 bytes).
    Removing rtx_evr.o(i.EvrRtxKernelUnlocked), (2 bytes).
    Removing rtx_evr.o(i.EvrRtxMemoryPoolAlloc), (2 bytes).
    Removing rtx_evr.o(i.EvrRtxMemoryPoolAllocFailed), (2 bytes).
    Removing rtx_evr.o(i.EvrRtxMemoryPoolAllocPending), (2 bytes).
    Removing rtx_evr.o(i.EvrRtxMemoryPoolAllocated), (2 bytes).
    Removing rtx_evr.o(i.EvrRtxMemoryPoolCreated), (2 bytes).
    Removing rtx_evr.o(i.EvrRtxMemoryPoolDeallocated), (2 bytes).
    Removing rtx_evr.o(i.EvrRtxMemoryPoolDelete), (2 bytes).
    Removing rtx_evr.o(i.EvrRtxMemoryPoolDestroyed), (2 bytes).
    Removing rtx_evr.o(i.EvrRtxMemoryPoolError), (2 bytes).
    Removing rtx_evr.o(i.EvrRtxMemoryPoolFree), (2 bytes).
    Removing rtx_evr.o(i.EvrRtxMemoryPoolFreeFailed), (2 bytes).
    Removing rtx_evr.o(i.EvrRtxMemoryPoolGetBlockSize), (2 bytes).
    Removing rtx_evr.o(i.EvrRtxMemoryPoolGetCapacity), (2 bytes).
    Removing rtx_evr.o(i.EvrRtxMemoryPoolGetCount), (2 bytes).
    Removing rtx_evr.o(i.EvrRtxMemoryPoolGetName), (2 bytes).
    Removing rtx_evr.o(i.EvrRtxMemoryPoolGetSpace), (2 bytes).
    Removing rtx_evr.o(i.EvrRtxMemoryPoolNew), (2 bytes).
    Removing rtx_evr.o(i.EvrRtxMessageQueueDelete), (2 bytes).
    Removing rtx_evr.o(i.EvrRtxMessageQueueDestroyed), (2 bytes).
    Removing rtx_evr.o(i.EvrRtxMessageQueueGetCapacity), (2 bytes).
    Removing rtx_evr.o(i.EvrRtxMessageQueueGetCount), (2 bytes).
    Removing rtx_evr.o(i.EvrRtxMessageQueueGetMsgSize), (2 bytes).
    Removing rtx_evr.o(i.EvrRtxMessageQueueGetName), (2 bytes).
    Removing rtx_evr.o(i.EvrRtxMessageQueueGetSpace), (2 bytes).
    Removing rtx_evr.o(i.EvrRtxMessageQueueReset), (2 bytes).
    Removing rtx_evr.o(i.EvrRtxMessageQueueResetDone), (2 bytes).
    Removing rtx_evr.o(i.EvrRtxMutexAcquire), (2 bytes).
    Removing rtx_evr.o(i.EvrRtxMutexAcquirePending), (2 bytes).
    Removing rtx_evr.o(i.EvrRtxMutexCreated), (2 bytes).
    Removing rtx_evr.o(i.EvrRtxMutexDelete), (2 bytes).
    Removing rtx_evr.o(i.EvrRtxMutexDestroyed), (2 bytes).
    Removing rtx_evr.o(i.EvrRtxMutexError), (2 bytes).
    Removing rtx_evr.o(i.EvrRtxMutexGetName), (2 bytes).
    Removing rtx_evr.o(i.EvrRtxMutexGetOwner), (2 bytes).
    Removing rtx_evr.o(i.EvrRtxMutexNew), (2 bytes).
    Removing rtx_evr.o(i.EvrRtxMutexNotAcquired), (2 bytes).
    Removing rtx_evr.o(i.EvrRtxMutexRelease), (2 bytes).
    Removing rtx_evr.o(i.EvrRtxSemaphoreDelete), (2 bytes).
    Removing rtx_evr.o(i.EvrRtxSemaphoreDestroyed), (2 bytes).
    Removing rtx_evr.o(i.EvrRtxSemaphoreGetCount), (2 bytes).
    Removing rtx_evr.o(i.EvrRtxSemaphoreGetName), (2 bytes).
    Removing rtx_evr.o(i.EvrRtxThreadDelayUntil), (2 bytes).
    Removing rtx_evr.o(i.EvrRtxThreadDetach), (2 bytes).
    Removing rtx_evr.o(i.EvrRtxThreadDetached), (2 bytes).
    Removing rtx_evr.o(i.EvrRtxThreadEnumerate), (2 bytes).
    Removing rtx_evr.o(i.EvrRtxThreadFlagsClear), (2 bytes).
    Removing rtx_evr.o(i.EvrRtxThreadFlagsClearDone), (2 bytes).
    Removing rtx_evr.o(i.EvrRtxThreadFlagsGet), (2 bytes).
    Removing rtx_evr.o(i.EvrRtxThreadFlagsSet), (2 bytes).
    Removing rtx_evr.o(i.EvrRtxThreadFlagsSetDone), (2 bytes).
    Removing rtx_evr.o(i.EvrRtxThreadFlagsWait), (2 bytes).
    Removing rtx_evr.o(i.EvrRtxThreadFlagsWaitNotCompleted), (2 bytes).
    Removing rtx_evr.o(i.EvrRtxThreadFlagsWaitPending), (2 bytes).
    Removing rtx_evr.o(i.EvrRtxThreadGetCount), (2 bytes).
    Removing rtx_evr.o(i.EvrRtxThreadGetId), (2 bytes).
    Removing rtx_evr.o(i.EvrRtxThreadGetName), (2 bytes).
    Removing rtx_evr.o(i.EvrRtxThreadGetPriority), (2 bytes).
    Removing rtx_evr.o(i.EvrRtxThreadGetStackSize), (2 bytes).
    Removing rtx_evr.o(i.EvrRtxThreadGetStackSpace), (2 bytes).
    Removing rtx_evr.o(i.EvrRtxThreadGetState), (2 bytes).
    Removing rtx_evr.o(i.EvrRtxThreadJoin), (2 bytes).
    Removing rtx_evr.o(i.EvrRtxThreadJoinPending), (2 bytes).
    Removing rtx_evr.o(i.EvrRtxThreadResume), (2 bytes).
    Removing rtx_evr.o(i.EvrRtxThreadResumed), (2 bytes).
    Removing rtx_evr.o(i.EvrRtxThreadSetPriority), (2 bytes).
    Removing rtx_evr.o(i.EvrRtxThreadSuspend), (2 bytes).
    Removing rtx_evr.o(i.EvrRtxThreadSuspended), (2 bytes).
    Removing rtx_evr.o(i.EvrRtxThreadTerminate), (2 bytes).
    Removing rtx_evr.o(i.EvrRtxThreadYield), (2 bytes).
    Removing rtx_evr.o(i.EvrRtxTimerCreated), (2 bytes).
    Removing rtx_evr.o(i.EvrRtxTimerDelete), (2 bytes).
    Removing rtx_evr.o(i.EvrRtxTimerDestroyed), (2 bytes).
    Removing rtx_evr.o(i.EvrRtxTimerError), (2 bytes).
    Removing rtx_evr.o(i.EvrRtxTimerGetName), (2 bytes).
    Removing rtx_evr.o(i.EvrRtxTimerIsRunning), (2 bytes).
    Removing rtx_evr.o(i.EvrRtxTimerNew), (2 bytes).
    Removing rtx_evr.o(i.EvrRtxTimerStart), (2 bytes).
    Removing rtx_evr.o(i.EvrRtxTimerStarted), (2 bytes).
    Removing rtx_evr.o(i.EvrRtxTimerStop), (2 bytes).
    Removing rtx_evr.o(i.EvrRtxTimerStopped), (2 bytes).
    Removing rtx_kernel.o(.rev16_text), (4 bytes).
    Removing rtx_kernel.o(.revsh_text), (4 bytes).
    Removing rtx_kernel.o(.rrx_text), (6 bytes).
    Removing rtx_kernel.o(.emb_text), (340 bytes).
    Removing rtx_kernel.o(i.KernelBlock), (68 bytes).
    Removing rtx_kernel.o(i.KernelUnblock), (60 bytes).
    Removing rtx_kernel.o(i.osKernelGetInfo), (96 bytes).
    Removing rtx_kernel.o(i.osKernelGetState), (68 bytes).
    Removing rtx_kernel.o(i.osKernelGetSysTimerCount), (44 bytes).
    Removing rtx_kernel.o(i.osKernelGetSysTimerFreq), (44 bytes).
    Removing rtx_kernel.o(i.osKernelGetTickCount), (44 bytes).
    Removing rtx_kernel.o(i.osKernelGetTickFreq), (44 bytes).
    Removing rtx_kernel.o(i.osKernelLock), (56 bytes).
    Removing rtx_kernel.o(i.osKernelRestoreLock), (60 bytes).
    Removing rtx_kernel.o(i.osKernelResume), (60 bytes).
    Removing rtx_kernel.o(i.osKernelSuspend), (52 bytes).
    Removing rtx_kernel.o(i.osKernelUnlock), (56 bytes).
    Removing rtx_kernel.o(i.svcRtxKernelGetInfo), (72 bytes).
    Removing rtx_kernel.o(i.svcRtxKernelGetState), (20 bytes).
    Removing rtx_kernel.o(i.svcRtxKernelGetSysTimerCount), (48 bytes).
    Removing rtx_kernel.o(i.svcRtxKernelGetSysTimerFreq), (18 bytes).
    Removing rtx_kernel.o(i.svcRtxKernelGetTickCount), (20 bytes).
    Removing rtx_kernel.o(i.svcRtxKernelGetTickFreq), (20 bytes).
    Removing rtx_kernel.o(i.svcRtxKernelLock), (64 bytes).
    Removing rtx_kernel.o(i.svcRtxKernelRestoreLock), (80 bytes).
    Removing rtx_kernel.o(i.svcRtxKernelResume), (196 bytes).
    Removing rtx_kernel.o(i.svcRtxKernelSuspend), (72 bytes).
    Removing rtx_kernel.o(i.svcRtxKernelUnlock), (64 bytes).
    Removing rtx_lib.o(.rev16_text), (4 bytes).
    Removing rtx_lib.o(.revsh_text), (4 bytes).
    Removing rtx_lib.o(.rrx_text), (6 bytes).
    Removing rtx_lib.o(.data), (4 bytes).
    Removing rtx_memory.o(.rev16_text), (4 bytes).
    Removing rtx_memory.o(.revsh_text), (4 bytes).
    Removing rtx_memory.o(.rrx_text), (6 bytes).
    Removing rtx_memory.o(.emb_text), (340 bytes).
    Removing rtx_mempool.o(.rev16_text), (4 bytes).
    Removing rtx_mempool.o(.revsh_text), (4 bytes).
    Removing rtx_mempool.o(.rrx_text), (6 bytes).
    Removing rtx_mempool.o(i.__get_BASEPRI), (6 bytes).
    Removing rtx_mempool.o(i.__get_IPSR), (6 bytes).
    Removing rtx_mempool.o(i.__get_PRIMASK), (6 bytes).
    Removing rtx_mempool.o(i.isrRtxMemoryPoolFree), (98 bytes).
    Removing rtx_mempool.o(i.osMemoryPoolAlloc), (140 bytes).
    Removing rtx_mempool.o(i.osMemoryPoolDelete), (64 bytes).
    Removing rtx_mempool.o(i.osMemoryPoolFree), (64 bytes).
    Removing rtx_mempool.o(i.osMemoryPoolGetBlockSize), (48 bytes).
    Removing rtx_mempool.o(i.osMemoryPoolGetCapacity), (48 bytes).
    Removing rtx_mempool.o(i.osMemoryPoolGetCount), (48 bytes).
    Removing rtx_mempool.o(i.osMemoryPoolGetName), (52 bytes).
    Removing rtx_mempool.o(i.osMemoryPoolGetSpace), (48 bytes).
    Removing rtx_mempool.o(i.osMemoryPoolNew), (116 bytes).
    Removing rtx_mempool.o(i.osRtxMemoryPoolPostProcess), (56 bytes).
    Removing rtx_mempool.o(i.svcRtxMemoryPoolAlloc), (124 bytes).
    Removing rtx_mempool.o(i.svcRtxMemoryPoolDelete), (164 bytes).
    Removing rtx_mempool.o(i.svcRtxMemoryPoolFree), (134 bytes).
    Removing rtx_mempool.o(i.svcRtxMemoryPoolGetBlockSize), (54 bytes).
    Removing rtx_mempool.o(i.svcRtxMemoryPoolGetCapacity), (54 bytes).
    Removing rtx_mempool.o(i.svcRtxMemoryPoolGetCount), (54 bytes).
    Removing rtx_mempool.o(i.svcRtxMemoryPoolGetName), (54 bytes).
    Removing rtx_mempool.o(i.svcRtxMemoryPoolGetSpace), (62 bytes).
    Removing rtx_mempool.o(i.svcRtxMemoryPoolNew), (400 bytes).
    Removing rtx_msgqueue.o(.rev16_text), (4 bytes).
    Removing rtx_msgqueue.o(.revsh_text), (4 bytes).
    Removing rtx_msgqueue.o(.rrx_text), (6 bytes).
    Removing rtx_msgqueue.o(i.osMessageQueueDelete), (64 bytes).
    Removing rtx_msgqueue.o(i.osMessageQueueGetCapacity), (48 bytes).
    Removing rtx_msgqueue.o(i.osMessageQueueGetCount), (48 bytes).
    Removing rtx_msgqueue.o(i.osMessageQueueGetMsgSize), (48 bytes).
    Removing rtx_msgqueue.o(i.osMessageQueueGetName), (52 bytes).
    Removing rtx_msgqueue.o(i.osMessageQueueGetSpace), (48 bytes).
    Removing rtx_msgqueue.o(i.osMessageQueueReset), (64 bytes).
    Removing rtx_msgqueue.o(i.svcRtxMessageQueueDelete), (164 bytes).
    Removing rtx_msgqueue.o(i.svcRtxMessageQueueGetCapacity), (54 bytes).
    Removing rtx_msgqueue.o(i.svcRtxMessageQueueGetCount), (54 bytes).
    Removing rtx_msgqueue.o(i.svcRtxMessageQueueGetMsgSize), (54 bytes).
    Removing rtx_msgqueue.o(i.svcRtxMessageQueueGetName), (54 bytes).
    Removing rtx_msgqueue.o(i.svcRtxMessageQueueGetSpace), (62 bytes).
    Removing rtx_msgqueue.o(i.svcRtxMessageQueueReset), (224 bytes).
    Removing rtx_mutex.o(.rev16_text), (4 bytes).
    Removing rtx_mutex.o(.revsh_text), (4 bytes).
    Removing rtx_mutex.o(.rrx_text), (6 bytes).
    Removing rtx_mutex.o(.emb_text), (340 bytes).
    Removing rtx_mutex.o(i.__get_BASEPRI), (6 bytes).
    Removing rtx_mutex.o(i.__get_IPSR), (6 bytes).
    Removing rtx_mutex.o(i.__get_PRIMASK), (6 bytes).
    Removing rtx_mutex.o(i.osMutexAcquire), (68 bytes).
    Removing rtx_mutex.o(i.osMutexDelete), (64 bytes).
    Removing rtx_mutex.o(i.osMutexGetName), (52 bytes).
    Removing rtx_mutex.o(i.osMutexGetOwner), (52 bytes).
    Removing rtx_mutex.o(i.osMutexNew), (96 bytes).
    Removing rtx_mutex.o(i.osMutexRelease), (64 bytes).
    Removing rtx_mutex.o(i.svcRtxMutexAcquire), (264 bytes).
    Removing rtx_mutex.o(i.svcRtxMutexDelete), (244 bytes).
    Removing rtx_mutex.o(i.svcRtxMutexGetName), (54 bytes).
    Removing rtx_mutex.o(i.svcRtxMutexGetOwner), (70 bytes).
    Removing rtx_mutex.o(i.svcRtxMutexNew), (176 bytes).
    Removing rtx_mutex.o(i.svcRtxMutexRelease), (276 bytes).
    Removing rtx_semaphore.o(.rev16_text), (4 bytes).
    Removing rtx_semaphore.o(.revsh_text), (4 bytes).
    Removing rtx_semaphore.o(.rrx_text), (6 bytes).
    Removing rtx_semaphore.o(i.osSemaphoreDelete), (64 bytes).
    Removing rtx_semaphore.o(i.osSemaphoreGetCount), (48 bytes).
    Removing rtx_semaphore.o(i.osSemaphoreGetName), (52 bytes).
    Removing rtx_semaphore.o(i.svcRtxSemaphoreDelete), (144 bytes).
    Removing rtx_semaphore.o(i.svcRtxSemaphoreGetCount), (54 bytes).
    Removing rtx_semaphore.o(i.svcRtxSemaphoreGetName), (54 bytes).
    Removing rtx_system.o(.rev16_text), (4 bytes).
    Removing rtx_system.o(.revsh_text), (4 bytes).
    Removing rtx_system.o(.rrx_text), (6 bytes).
    Removing rtx_thread.o(.rev16_text), (4 bytes).
    Removing rtx_thread.o(.revsh_text), (4 bytes).
    Removing rtx_thread.o(.rrx_text), (6 bytes).
    Removing rtx_thread.o(i.ThreadFlagsClear), (22 bytes).
    Removing rtx_thread.o(i.ThreadFlagsSet), (22 bytes).
    Removing rtx_thread.o(i.osRtxThreadListSort), (40 bytes).
    Removing rtx_thread.o(i.osRtxThreadListUnlink), (32 bytes).
    Removing rtx_thread.o(i.osThreadDetach), (64 bytes).
    Removing rtx_thread.o(i.osThreadEnumerate), (60 bytes).
    Removing rtx_thread.o(i.osThreadFlagsClear), (64 bytes).
    Removing rtx_thread.o(i.osThreadFlagsGet), (48 bytes).
    Removing rtx_thread.o(i.osThreadFlagsSet), (148 bytes).
    Removing rtx_thread.o(i.osThreadFlagsWait), (76 bytes).
    Removing rtx_thread.o(i.osThreadGetCount), (48 bytes).
    Removing rtx_thread.o(i.osThreadGetId), (48 bytes).
    Removing rtx_thread.o(i.osThreadGetName), (52 bytes).
    Removing rtx_thread.o(i.osThreadGetPriority), (56 bytes).
    Removing rtx_thread.o(i.osThreadGetStackSize), (52 bytes).
    Removing rtx_thread.o(i.osThreadGetStackSpace), (52 bytes).
    Removing rtx_thread.o(i.osThreadGetState), (56 bytes).
    Removing rtx_thread.o(i.osThreadJoin), (64 bytes).
    Removing rtx_thread.o(i.osThreadResume), (64 bytes).
    Removing rtx_thread.o(i.osThreadSetPriority), (68 bytes).
    Removing rtx_thread.o(i.osThreadSuspend), (64 bytes).
    Removing rtx_thread.o(i.osThreadTerminate), (64 bytes).
    Removing rtx_thread.o(i.osThreadYield), (56 bytes).
    Removing rtx_thread.o(i.svcRtxThreadDetach), (120 bytes).
    Removing rtx_thread.o(i.svcRtxThreadEnumerate), (112 bytes).
    Removing rtx_thread.o(i.svcRtxThreadFlagsClear), (96 bytes).
    Removing rtx_thread.o(i.svcRtxThreadFlagsGet), (50 bytes).
    Removing rtx_thread.o(i.svcRtxThreadFlagsSet), (154 bytes).
    Removing rtx_thread.o(i.svcRtxThreadFlagsWait), (136 bytes).
    Removing rtx_thread.o(i.svcRtxThreadGetCount), (60 bytes).
    Removing rtx_thread.o(i.svcRtxThreadGetId), (18 bytes).
    Removing rtx_thread.o(i.svcRtxThreadGetName), (54 bytes).
    Removing rtx_thread.o(i.svcRtxThreadGetPriority), (72 bytes).
    Removing rtx_thread.o(i.svcRtxThreadGetStackSize), (54 bytes).
    Removing rtx_thread.o(i.svcRtxThreadGetStackSpace), (136 bytes).
    Removing rtx_thread.o(i.svcRtxThreadGetState), (50 bytes).
    Removing rtx_thread.o(i.svcRtxThreadJoin), (148 bytes).
    Removing rtx_thread.o(i.svcRtxThreadResume), (84 bytes).
    Removing rtx_thread.o(i.svcRtxThreadSetPriority), (104 bytes).
    Removing rtx_thread.o(i.svcRtxThreadSuspend), (180 bytes).
    Removing rtx_thread.o(i.svcRtxThreadTerminate), (260 bytes).
    Removing rtx_thread.o(i.svcRtxThreadYield), (64 bytes).
    Removing rtx_timer.o(.rev16_text), (4 bytes).
    Removing rtx_timer.o(.revsh_text), (4 bytes).
    Removing rtx_timer.o(.rrx_text), (6 bytes).
    Removing rtx_timer.o(.emb_text), (340 bytes).
    Removing rtx_timer.o(i.TimerRemove), (48 bytes).
    Removing rtx_timer.o(i.__get_BASEPRI), (6 bytes).
    Removing rtx_timer.o(i.__get_IPSR), (6 bytes).
    Removing rtx_timer.o(i.__get_PRIMASK), (6 bytes).
    Removing rtx_timer.o(i.osTimerDelete), (64 bytes).
    Removing rtx_timer.o(i.osTimerGetName), (52 bytes).
    Removing rtx_timer.o(i.osTimerIsRunning), (52 bytes).
    Removing rtx_timer.o(i.osTimerNew), (124 bytes).
    Removing rtx_timer.o(i.osTimerStart), (68 bytes).
    Removing rtx_timer.o(i.osTimerStop), (64 bytes).
    Removing rtx_timer.o(i.svcRtxTimerDelete), (136 bytes).
    Removing rtx_timer.o(i.svcRtxTimerGetName), (54 bytes).
    Removing rtx_timer.o(i.svcRtxTimerIsRunning), (56 bytes).
    Removing rtx_timer.o(i.svcRtxTimerNew), (212 bytes).
    Removing rtx_timer.o(i.svcRtxTimerStart), (128 bytes).
    Removing rtx_timer.o(i.svcRtxTimerStop), (72 bytes).
    Removing os_systick.o(.rev16_text), (4 bytes).
    Removing os_systick.o(.revsh_text), (4 bytes).
    Removing os_systick.o(.rrx_text), (6 bytes).
    Removing os_systick.o(i.OS_Tick_Disable), (52 bytes).
    Removing os_systick.o(i.OS_Tick_GetClock), (12 bytes).
    Removing os_systick.o(i.OS_Tick_GetCount), (12 bytes).
    Removing os_systick.o(i.OS_Tick_GetInterval), (10 bytes).
    Removing os_systick.o(i.OS_Tick_GetOverflow), (12 bytes).
    Removing rtx_config.o(.rev16_text), (4 bytes).
    Removing rtx_config.o(.revsh_text), (4 bytes).
    Removing rtx_config.o(.rrx_text), (6 bytes).
    Removing i2c_lpc17xx.o(.rev16_text), (4 bytes).
    Removing i2c_lpc17xx.o(.revsh_text), (4 bytes).
    Removing i2c_lpc17xx.o(.rrx_text), (6 bytes).
    Removing uart_lpc17xx.o(.rev16_text), (4 bytes).
    Removing uart_lpc17xx.o(.revsh_text), (4 bytes).
    Removing uart_lpc17xx.o(.rrx_text), (6 bytes).
    Removing gpdma_lpc17xx.o(.rev16_text), (4 bytes).
    Removing gpdma_lpc17xx.o(.revsh_text), (4 bytes).
    Removing gpdma_lpc17xx.o(.rrx_text), (6 bytes).
    Removing gpdma_lpc17xx.o(i.GPDMA_ChannelEnable), (60 bytes).
    Removing gpdma_lpc17xx.o(i.GPDMA_ChannelGetStatus), (36 bytes).
    Removing gpio_lpc17xx.o(.rev16_text), (4 bytes).
    Removing gpio_lpc17xx.o(.revsh_text), (4 bytes).
    Removing gpio_lpc17xx.o(.rrx_text), (6 bytes).
    Removing gpio_lpc17xx.o(i.GPIO_PinRead), (32 bytes).
    Removing gpio_lpc17xx.o(i.GPIO_PortClock), (44 bytes).
    Removing gpio_lpc17xx.o(i.GPIO_PortRead), (20 bytes).
    Removing gpio_lpc17xx.o(i.GPIO_PortWrite), (32 bytes).
    Removing pin_lpc17xx.o(.rev16_text), (4 bytes).
    Removing pin_lpc17xx.o(.revsh_text), (4 bytes).
    Removing pin_lpc17xx.o(.rrx_text), (6 bytes).
    Removing pin_lpc17xx.o(i.PIN_ConfigureTPIU), (40 bytes).
    Removing startup_lpc17xx.o(HEAP), (512 bytes).
    Removing system_lpc17xx.o(.rev16_text), (4 bytes).
    Removing system_lpc17xx.o(.revsh_text), (4 bytes).
    Removing system_lpc17xx.o(.rrx_text), (6 bytes).
    Removing dadd.o(.text), (334 bytes).
    Removing dmul.o(.text), (228 bytes).
    Removing ddiv.o(.text), (222 bytes).
    Removing dfixul.o(.text), (48 bytes).
    Removing cdrcmple.o(.text), (48 bytes).
    Removing depilogue.o(.text), (186 bytes).

406 unused section(s) (total 17957 bytes) removed from the image.

==============================================================================

Image Symbol Table

    Local Symbols

    Symbol Name                              Value     Ov Type        Size  Object(Section)

    RESET                                    0x00000000   Section      204  startup_lpc17xx.o(RESET)
    ../clib/../cmprslib/zerorunl.c           0x00000000   Number         0  __dczerorl.o ABSOLUTE
    ../clib/microlib/division.c              0x00000000   Number         0  uidiv.o ABSOLUTE
    ../clib/microlib/division.c              0x00000000   Number         0  uldiv.o ABSOLUTE
    ../clib/microlib/init/entry.s            0x00000000   Number         0  entry8b.o ABSOLUTE
    ../clib/microlib/init/entry.s            0x00000000   Number         0  entry7b.o ABSOLUTE
    ../clib/microlib/init/entry.s            0x00000000   Number         0  entry.o ABSOLUTE
    ../clib/microlib/init/entry.s            0x00000000   Number         0  entry8a.o ABSOLUTE
    ../clib/microlib/init/entry.s            0x00000000   Number         0  entry11a.o ABSOLUTE
    ../clib/microlib/init/entry.s            0x00000000   Number         0  entry5.o ABSOLUTE
    ../clib/microlib/init/entry.s            0x00000000   Number         0  entry7a.o ABSOLUTE
    ../clib/microlib/init/entry.s            0x00000000   Number         0  entry9a.o ABSOLUTE
    ../clib/microlib/init/entry.s            0x00000000   Number         0  entry2.o ABSOLUTE
    ../clib/microlib/init/entry.s            0x00000000   Number         0  entry9b.o ABSOLUTE
    ../clib/microlib/init/entry.s            0x00000000   Number         0  entry10a.o ABSOLUTE
    ../clib/microlib/init/entry.s            0x00000000   Number         0  entry10b.o ABSOLUTE
    ../clib/microlib/init/entry.s            0x00000000   Number         0  entry11b.o ABSOLUTE
    ../clib/microlib/longlong.c              0x00000000   Number         0  llushr.o ABSOLUTE
    ../clib/microlib/longlong.c              0x00000000   Number         0  llsshr.o ABSOLUTE
    ../clib/microlib/longlong.c              0x00000000   Number         0  llshl.o ABSOLUTE
    ../clib/microlib/printf/printf.c         0x00000000   Number         0  printf5.o ABSOLUTE
    ../clib/microlib/printf/printf.c         0x00000000   Number         0  printf3.o ABSOLUTE
    ../clib/microlib/printf/printf.c         0x00000000   Number         0  printf2.o ABSOLUTE
    ../clib/microlib/printf/printf.c         0x00000000   Number         0  printf1.o ABSOLUTE
    ../clib/microlib/printf/printf.c         0x00000000   Number         0  printfb.o ABSOLUTE
    ../clib/microlib/printf/printf.c         0x00000000   Number         0  printf0.o ABSOLUTE
    ../clib/microlib/printf/printf.c         0x00000000   Number         0  printf4.o ABSOLUTE
    ../clib/microlib/printf/printf.c         0x00000000   Number         0  printfa.o ABSOLUTE
    ../clib/microlib/printf/printf.c         0x00000000   Number         0  printf8.o ABSOLUTE
    ../clib/microlib/printf/printf.c         0x00000000   Number         0  printf7.o ABSOLUTE
    ../clib/microlib/printf/printf.c         0x00000000   Number         0  printf6.o ABSOLUTE
    ../clib/microlib/printf/stubs.s          0x00000000   Number         0  stubs.o ABSOLUTE
    ../clib/microlib/stdio/fputc.c           0x00000000   Number         0  fputc.o ABSOLUTE
    ../clib/microlib/stdio/semi.s            0x00000000   Number         0  semi.o ABSOLUTE
    ../clib/microlib/stdio/streams.c         0x00000000   Number         0  stdout.o ABSOLUTE
    ../clib/microlib/string/memcpy.c         0x00000000   Number         0  memcpya.o ABSOLUTE
    ../clib/microlib/string/memcpy.c         0x00000000   Number         0  memcpyb.o ABSOLUTE
    ../clib/microlib/string/memset.c         0x00000000   Number         0  memseta.o ABSOLUTE
    ../clib/microlib/stubs.s                 0x00000000   Number         0  iusefp.o ABSOLUTE
    ../clib/microlib/stubs.s                 0x00000000   Number         0  iusesemip.o ABSOLUTE
    ../fplib/microlib/fpadd.c                0x00000000   Number         0  dadd.o ABSOLUTE
    ../fplib/microlib/fpadd.c                0x00000000   Number         0  fadd.o ABSOLUTE
    ../fplib/microlib/fpdiv.c                0x00000000   Number         0  ddiv.o ABSOLUTE
    ../fplib/microlib/fpdiv.c                0x00000000   Number         0  fdiv.o ABSOLUTE
    ../fplib/microlib/fpepilogue.c           0x00000000   Number         0  depilogue.o ABSOLUTE
    ../fplib/microlib/fpepilogue.c           0x00000000   Number         0  fepilogue.o ABSOLUTE
    ../fplib/microlib/fpfix.c                0x00000000   Number         0  dfixul.o ABSOLUTE
    ../fplib/microlib/fpfix.c                0x00000000   Number         0  ffixui.o ABSOLUTE
    ../fplib/microlib/fpflt.c                0x00000000   Number         0  fflti.o ABSOLUTE
    ../fplib/microlib/fpmul.c                0x00000000   Number         0  dmul.o ABSOLUTE
    ../fplib/microlib/fpmul.c                0x00000000   Number         0  fmul.o ABSOLUTE
    C:\Keil_v5\ARM\PACK\ARM\CMSIS\5.1.0\CMSIS\RTOS2\RTX\Source\ARM\irq_cm3.s 0x00000000   Number         0  irq_cm3.o ABSOLUTE
    C:\Keil_v5\ARM\PACK\ARM\CMSIS\5.1.0\CMSIS\RTOS2\RTX\Source\rtx_delay.c 0x00000000   Number         0  rtx_delay.o ABSOLUTE
    C:\Keil_v5\ARM\PACK\ARM\CMSIS\5.1.0\CMSIS\RTOS2\RTX\Source\rtx_evflags.c 0x00000000   Number         0  rtx_evflags.o ABSOLUTE
    C:\Keil_v5\ARM\PACK\ARM\CMSIS\5.1.0\CMSIS\RTOS2\RTX\Source\rtx_evr.c 0x00000000   Number         0  rtx_evr.o ABSOLUTE
    C:\Keil_v5\ARM\PACK\ARM\CMSIS\5.1.0\CMSIS\RTOS2\RTX\Source\rtx_kernel.c 0x00000000   Number         0  rtx_kernel.o ABSOLUTE
    C:\Keil_v5\ARM\PACK\ARM\CMSIS\5.1.0\CMSIS\RTOS2\RTX\Source\rtx_lib.c 0x00000000   Number         0  rtx_lib.o ABSOLUTE
    C:\Keil_v5\ARM\PACK\ARM\CMSIS\5.1.0\CMSIS\RTOS2\RTX\Source\rtx_memory.c 0x00000000   Number         0  rtx_memory.o ABSOLUTE
    C:\Keil_v5\ARM\PACK\ARM\CMSIS\5.1.0\CMSIS\RTOS2\RTX\Source\rtx_mempool.c 0x00000000   Number         0  rtx_mempool.o ABSOLUTE
    C:\Keil_v5\ARM\PACK\ARM\CMSIS\5.1.0\CMSIS\RTOS2\RTX\Source\rtx_msgqueue.c 0x00000000   Number         0  rtx_msgqueue.o ABSOLUTE
    C:\Keil_v5\ARM\PACK\ARM\CMSIS\5.1.0\CMSIS\RTOS2\RTX\Source\rtx_mutex.c 0x00000000   Number         0  rtx_mutex.o ABSOLUTE
    C:\Keil_v5\ARM\PACK\ARM\CMSIS\5.1.0\CMSIS\RTOS2\RTX\Source\rtx_semaphore.c 0x00000000   Number         0  rtx_semaphore.o ABSOLUTE
    C:\Keil_v5\ARM\PACK\ARM\CMSIS\5.1.0\CMSIS\RTOS2\RTX\Source\rtx_system.c 0x00000000   Number         0  rtx_system.o ABSOLUTE
    C:\Keil_v5\ARM\PACK\ARM\CMSIS\5.1.0\CMSIS\RTOS2\RTX\Source\rtx_thread.c 0x00000000   Number         0  rtx_thread.o ABSOLUTE
    C:\Keil_v5\ARM\PACK\ARM\CMSIS\5.1.0\CMSIS\RTOS2\RTX\Source\rtx_timer.c 0x00000000   Number         0  rtx_timer.o ABSOLUTE
    C:\Keil_v5\ARM\PACK\ARM\CMSIS\5.1.0\CMSIS\RTOS2\Source\os_systick.c 0x00000000   Number         0  os_systick.o ABSOLUTE
    C:\Keil_v5\ARM\PACK\Keil\LPC1700_DFP\2.3.0\RTE_Driver\GPDMA_LPC17xx.c 0x00000000   Number         0  gpdma_lpc17xx.o ABSOLUTE
    C:\Keil_v5\ARM\PACK\Keil\LPC1700_DFP\2.3.0\RTE_Driver\GPIO_LPC17xx.c 0x00000000   Number         0  gpio_lpc17xx.o ABSOLUTE
    C:\Keil_v5\ARM\PACK\Keil\LPC1700_DFP\2.3.0\RTE_Driver\I2C_LPC17xx.c 0x00000000   Number         0  i2c_lpc17xx.o ABSOLUTE
    C:\Keil_v5\ARM\PACK\Keil\LPC1700_DFP\2.3.0\RTE_Driver\PIN_LPC17xx.c 0x00000000   Number         0  pin_lpc17xx.o ABSOLUTE
    C:\Keil_v5\ARM\PACK\Keil\LPC1700_DFP\2.3.0\RTE_Driver\UART_LPC17xx.c 0x00000000   Number         0  uart_lpc17xx.o ABSOLUTE
    C:\\Keil_v5\\ARM\\PACK\\ARM\\CMSIS\\5.1.0\\CMSIS\\RTOS2\\RTX\\Source\\rtx_delay.c 0x00000000   Number         0  rtx_delay.o ABSOLUTE
    C:\\Keil_v5\\ARM\\PACK\\ARM\\CMSIS\\5.1.0\\CMSIS\\RTOS2\\RTX\\Source\\rtx_evflags.c 0x00000000   Number         0  rtx_evflags.o ABSOLUTE
    C:\\Keil_v5\\ARM\\PACK\\ARM\\CMSIS\\5.1.0\\CMSIS\\RTOS2\\RTX\\Source\\rtx_evr.c 0x00000000   Number         0  rtx_evr.o ABSOLUTE
    C:\\Keil_v5\\ARM\\PACK\\ARM\\CMSIS\\5.1.0\\CMSIS\\RTOS2\\RTX\\Source\\rtx_kernel.c 0x00000000   Number         0  rtx_kernel.o ABSOLUTE
    C:\\Keil_v5\\ARM\\PACK\\ARM\\CMSIS\\5.1.0\\CMSIS\\RTOS2\\RTX\\Source\\rtx_lib.c 0x00000000   Number         0  rtx_lib.o ABSOLUTE
    C:\\Keil_v5\\ARM\\PACK\\ARM\\CMSIS\\5.1.0\\CMSIS\\RTOS2\\RTX\\Source\\rtx_memory.c 0x00000000   Number         0  rtx_memory.o ABSOLUTE
    C:\\Keil_v5\\ARM\\PACK\\ARM\\CMSIS\\5.1.0\\CMSIS\\RTOS2\\RTX\\Source\\rtx_mempool.c 0x00000000   Number         0  rtx_mempool.o ABSOLUTE
    C:\\Keil_v5\\ARM\\PACK\\ARM\\CMSIS\\5.1.0\\CMSIS\\RTOS2\\RTX\\Source\\rtx_msgqueue.c 0x00000000   Number         0  rtx_msgqueue.o ABSOLUTE
    C:\\Keil_v5\\ARM\\PACK\\ARM\\CMSIS\\5.1.0\\CMSIS\\RTOS2\\RTX\\Source\\rtx_mutex.c 0x00000000   Number         0  rtx_mutex.o ABSOLUTE
    C:\\Keil_v5\\ARM\\PACK\\ARM\\CMSIS\\5.1.0\\CMSIS\\RTOS2\\RTX\\Source\\rtx_semaphore.c 0x00000000   Number         0  rtx_semaphore.o ABSOLUTE
    C:\\Keil_v5\\ARM\\PACK\\ARM\\CMSIS\\5.1.0\\CMSIS\\RTOS2\\RTX\\Source\\rtx_system.c 0x00000000   Number         0  rtx_system.o ABSOLUTE
    C:\\Keil_v5\\ARM\\PACK\\ARM\\CMSIS\\5.1.0\\CMSIS\\RTOS2\\RTX\\Source\\rtx_thread.c 0x00000000   Number         0  rtx_thread.o ABSOLUTE
    C:\\Keil_v5\\ARM\\PACK\\ARM\\CMSIS\\5.1.0\\CMSIS\\RTOS2\\RTX\\Source\\rtx_timer.c 0x00000000   Number         0  rtx_timer.o ABSOLUTE
    C:\\Keil_v5\\ARM\\PACK\\ARM\\CMSIS\\5.1.0\\CMSIS\\RTOS2\\Source\\os_systick.c 0x00000000   Number         0  os_systick.o ABSOLUTE
    C:\\Keil_v5\\ARM\\PACK\\Keil\\LPC1700_DFP\\2.3.0\\RTE_Driver\\GPDMA_LPC17xx.c 0x00000000   Number         0  gpdma_lpc17xx.o ABSOLUTE
    C:\\Keil_v5\\ARM\\PACK\\Keil\\LPC1700_DFP\\2.3.0\\RTE_Driver\\GPIO_LPC17xx.c 0x00000000   Number         0  gpio_lpc17xx.o ABSOLUTE
    C:\\Keil_v5\\ARM\\PACK\\Keil\\LPC1700_DFP\\2.3.0\\RTE_Driver\\I2C_LPC17xx.c 0x00000000   Number         0  i2c_lpc17xx.o ABSOLUTE
    C:\\Keil_v5\\ARM\\PACK\\Keil\\LPC1700_DFP\\2.3.0\\RTE_Driver\\PIN_LPC17xx.c 0x00000000   Number         0  pin_lpc17xx.o ABSOLUTE
    C:\\Keil_v5\\ARM\\PACK\\Keil\\LPC1700_DFP\\2.3.0\\RTE_Driver\\UART_LPC17xx.c 0x00000000   Number         0  uart_lpc17xx.o ABSOLUTE
    ITM_ARM.cpp                              0x00000000   Number         0  itm_arm.o ABSOLUTE
    Main.cpp                                 0x00000000   Number         0  main.o ABSOLUTE
    Main.cpp                                 0x00000000   Number         0  main.o ABSOLUTE
    RTE\CMSIS\RTX_Config.c                   0x00000000   Number         0  rtx_config.o ABSOLUTE
    RTE\Device\LPC1768\startup_LPC17xx.s     0x00000000   Number         0  startup_lpc17xx.o ABSOLUTE
    RTE\Device\LPC1768\system_LPC17xx.c      0x00000000   Number         0  system_lpc17xx.o ABSOLUTE
    RTE\\CMSIS\\RTX_Config.c                 0x00000000   Number         0  rtx_config.o ABSOLUTE
    RTE\\Device\\LPC1768\\system_LPC17xx.c   0x00000000   Number         0  system_lpc17xx.o ABSOLUTE
    RingBuffer.cpp                           0x00000000   Number         0  ringbuffer.o ABSOLUTE
    cdrcmple.s                               0x00000000   Number         0  cdrcmple.o ABSOLUTE
    dc.s                                     0x00000000   Number         0  dc.o ABSOLUTE
    handlers.s                               0x00000000   Number         0  handlers.o ABSOLUTE
    init.s                                   0x00000000   Number         0  init.o ABSOLUTE
    .ARM.Collect$$$$00000000                 0x000000cc   Section        0  entry.o(.ARM.Collect$$$$00000000)
    .ARM.Collect$$$$00000001                 0x000000cc   Section        4  entry2.o(.ARM.Collect$$$$00000001)
    .ARM.Collect$$$$00000004                 0x000000d0   Section        4  entry5.o(.ARM.Collect$$$$00000004)
    .ARM.Collect$$$$00000008                 0x000000d4   Section        0  entry7b.o(.ARM.Collect$$$$00000008)
    .ARM.Collect$$$$0000000A                 0x000000d4   Section        0  entry8b.o(.ARM.Collect$$$$0000000A)
    .ARM.Collect$$$$0000000B                 0x000000d4   Section        8  entry9a.o(.ARM.Collect$$$$0000000B)
    .ARM.Collect$$$$0000000D                 0x000000dc   Section        0  entry10a.o(.ARM.Collect$$$$0000000D)
    .ARM.Collect$$$$0000000F                 0x000000dc   Section        0  entry11a.o(.ARM.Collect$$$$0000000F)
    .ARM.Collect$$$$00002712                 0x000000dc   Section        4  entry2.o(.ARM.Collect$$$$00002712)
    __lit__00000000                          0x000000dc   Data           4  entry2.o(.ARM.Collect$$$$00002712)
    .emb_text                                0x000000e0   Section      340  rtx_mempool.o(.emb_text)
    .text                                    0x00000234   Section      136  irq_cm3.o(.text)
    .text                                    0x000002bc   Section       36  startup_lpc17xx.o(.text)
    .text                                    0x000002e0   Section        0  fflti.o(.text)
    .text                                    0x000002f2   Section        0  iusefp.o(.text)
    i.EvrRtxEventFlagsWaitTimeout            0x000002f2   Section        0  rtx_evr.o(i.EvrRtxEventFlagsWaitTimeout)
    i.EvrRtxKernelError                      0x000002f4   Section        0  rtx_evr.o(i.EvrRtxKernelError)
    i.EvrRtxKernelInitialize                 0x000002f6   Section        0  rtx_evr.o(i.EvrRtxKernelInitialize)
    i.EvrRtxKernelInitializeCompleted        0x000002f8   Section        0  rtx_evr.o(i.EvrRtxKernelInitializeCompleted)
    i.EvrRtxKernelStart                      0x000002fa   Section        0  rtx_evr.o(i.EvrRtxKernelStart)
    .ARM.__at_0x02FC                         0x000002fc   Section        4  startup_lpc17xx.o(.ARM.__at_0x02FC)
    .emb_text                                0x00000300   Section      340  rtx_msgqueue.o(.emb_text)
    .emb_text                                0x00000454   Section      340  rtx_semaphore.o(.emb_text)
    .emb_text                                0x000005a8   Section      340  rtx_system.o(.emb_text)
    .emb_text                                0x000006fc   Section      340  rtx_thread.o(.emb_text)
    .text                                    0x00000850   Section        0  uldiv.o(.text)
    .text                                    0x000008b2   Section        0  memcpya.o(.text)
    .text                                    0x000008d6   Section        0  memseta.o(.text)
    .text                                    0x000008fa   Section        0  fadd.o(.text)
    .text                                    0x000009aa   Section        0  fmul.o(.text)
    .text                                    0x00000a0e   Section        0  fdiv.o(.text)
    .text                                    0x00000a8a   Section        0  ffixui.o(.text)
    .text                                    0x00000ab2   Section        0  llshl.o(.text)
    .text                                    0x00000ad0   Section        0  llushr.o(.text)
    .text                                    0x00000af0   Section        0  fepilogue.o(.text)
    .text                                    0x00000b60   Section       36  init.o(.text)
    .text                                    0x00000b84   Section        0  __dczerorl.o(.text)
    i.Clear_Channel_active_flag              0x00000bc0   Section        0  gpdma_lpc17xx.o(i.Clear_Channel_active_flag)
    Clear_Channel_active_flag                0x00000bc1   Thumb Code    28  gpdma_lpc17xx.o(i.Clear_Channel_active_flag)
    i.DMA_IRQHandler                         0x00000be0   Section        0  gpdma_lpc17xx.o(i.DMA_IRQHandler)
    i.EvrRtxKernelStarted                    0x00000d60   Section        0  rtx_evr.o(i.EvrRtxKernelStarted)
    i.EvrRtxMemoryAlloc                      0x00000d62   Section        0  rtx_evr.o(i.EvrRtxMemoryAlloc)
    i.EvrRtxMemoryBlockAlloc                 0x00000d64   Section        0  rtx_evr.o(i.EvrRtxMemoryBlockAlloc)
    i.EvrRtxMemoryBlockFree                  0x00000d66   Section        0  rtx_evr.o(i.EvrRtxMemoryBlockFree)
    i.EvrRtxMemoryBlockInit                  0x00000d68   Section        0  rtx_evr.o(i.EvrRtxMemoryBlockInit)
    i.EvrRtxMemoryFree                       0x00000d6a   Section        0  rtx_evr.o(i.EvrRtxMemoryFree)
    i.EvrRtxMemoryInit                       0x00000d6c   Section        0  rtx_evr.o(i.EvrRtxMemoryInit)
    i.EvrRtxMemoryPoolAllocTimeout           0x00000d6e   Section        0  rtx_evr.o(i.EvrRtxMemoryPoolAllocTimeout)
    i.EvrRtxMessageQueueCreated              0x00000d70   Section        0  rtx_evr.o(i.EvrRtxMessageQueueCreated)
    i.EvrRtxMessageQueueError                0x00000d72   Section        0  rtx_evr.o(i.EvrRtxMessageQueueError)
    i.EvrRtxMessageQueueGet                  0x00000d74   Section        0  rtx_evr.o(i.EvrRtxMessageQueueGet)
    i.EvrRtxMessageQueueGetPending           0x00000d76   Section        0  rtx_evr.o(i.EvrRtxMessageQueueGetPending)
    i.EvrRtxMessageQueueGetTimeout           0x00000d78   Section        0  rtx_evr.o(i.EvrRtxMessageQueueGetTimeout)
    i.EvrRtxMessageQueueInsertPending        0x00000d7a   Section        0  rtx_evr.o(i.EvrRtxMessageQueueInsertPending)
    i.EvrRtxMessageQueueInserted             0x00000d7c   Section        0  rtx_evr.o(i.EvrRtxMessageQueueInserted)
    i.EvrRtxMessageQueueNew                  0x00000d7e   Section        0  rtx_evr.o(i.EvrRtxMessageQueueNew)
    i.EvrRtxMessageQueueNotInserted          0x00000d80   Section        0  rtx_evr.o(i.EvrRtxMessageQueueNotInserted)
    i.EvrRtxMessageQueueNotRetrieved         0x00000d82   Section        0  rtx_evr.o(i.EvrRtxMessageQueueNotRetrieved)
    i.EvrRtxMessageQueuePut                  0x00000d84   Section        0  rtx_evr.o(i.EvrRtxMessageQueuePut)
    i.EvrRtxMessageQueuePutPending           0x00000d86   Section        0  rtx_evr.o(i.EvrRtxMessageQueuePutPending)
    i.EvrRtxMessageQueuePutTimeout           0x00000d88   Section        0  rtx_evr.o(i.EvrRtxMessageQueuePutTimeout)
    i.EvrRtxMessageQueueRetrieved            0x00000d8a   Section        0  rtx_evr.o(i.EvrRtxMessageQueueRetrieved)
    i.EvrRtxMutexAcquireTimeout              0x00000d8c   Section        0  rtx_evr.o(i.EvrRtxMutexAcquireTimeout)
    i.EvrRtxMutexAcquired                    0x00000d8e   Section        0  rtx_evr.o(i.EvrRtxMutexAcquired)
    i.EvrRtxMutexReleased                    0x00000d90   Section        0  rtx_evr.o(i.EvrRtxMutexReleased)
    i.EvrRtxSemaphoreAcquire                 0x00000d92   Section        0  rtx_evr.o(i.EvrRtxSemaphoreAcquire)
    i.EvrRtxSemaphoreAcquirePending          0x00000d94   Section        0  rtx_evr.o(i.EvrRtxSemaphoreAcquirePending)
    i.EvrRtxSemaphoreAcquireTimeout          0x00000d96   Section        0  rtx_evr.o(i.EvrRtxSemaphoreAcquireTimeout)
    i.EvrRtxSemaphoreAcquired                0x00000d98   Section        0  rtx_evr.o(i.EvrRtxSemaphoreAcquired)
    i.EvrRtxSemaphoreCreated                 0x00000d9a   Section        0  rtx_evr.o(i.EvrRtxSemaphoreCreated)
    i.EvrRtxSemaphoreError                   0x00000d9c   Section        0  rtx_evr.o(i.EvrRtxSemaphoreError)
    i.EvrRtxSemaphoreNew                     0x00000d9e   Section        0  rtx_evr.o(i.EvrRtxSemaphoreNew)
    i.EvrRtxSemaphoreNotAcquired             0x00000da0   Section        0  rtx_evr.o(i.EvrRtxSemaphoreNotAcquired)
    i.EvrRtxSemaphoreRelease                 0x00000da2   Section        0  rtx_evr.o(i.EvrRtxSemaphoreRelease)
    i.EvrRtxSemaphoreReleased                0x00000da4   Section        0  rtx_evr.o(i.EvrRtxSemaphoreReleased)
    i.EvrRtxThreadBlocked                    0x00000da6   Section        0  rtx_evr.o(i.EvrRtxThreadBlocked)
    i.EvrRtxThreadCreated                    0x00000da8   Section        0  rtx_evr.o(i.EvrRtxThreadCreated)
    i.EvrRtxThreadDelay                      0x00000daa   Section        0  rtx_evr.o(i.EvrRtxThreadDelay)
    i.EvrRtxThreadDelayCompleted             0x00000dac   Section        0  rtx_evr.o(i.EvrRtxThreadDelayCompleted)
    i.EvrRtxThreadDestroyed                  0x00000dae   Section        0  rtx_evr.o(i.EvrRtxThreadDestroyed)
    i.EvrRtxThreadError                      0x00000db0   Section        0  rtx_evr.o(i.EvrRtxThreadError)
    i.EvrRtxThreadExit                       0x00000db2   Section        0  rtx_evr.o(i.EvrRtxThreadExit)
    i.EvrRtxThreadFlagsWaitCompleted         0x00000db4   Section        0  rtx_evr.o(i.EvrRtxThreadFlagsWaitCompleted)
    i.EvrRtxThreadFlagsWaitTimeout           0x00000db6   Section        0  rtx_evr.o(i.EvrRtxThreadFlagsWaitTimeout)
    i.EvrRtxThreadJoined                     0x00000db8   Section        0  rtx_evr.o(i.EvrRtxThreadJoined)
    i.EvrRtxThreadNew                        0x00000dba   Section        0  rtx_evr.o(i.EvrRtxThreadNew)
    i.EvrRtxThreadSwitch                     0x00000dbc   Section        0  rtx_evr.o(i.EvrRtxThreadSwitch)
    i.EvrRtxThreadUnblocked                  0x00000dbe   Section        0  rtx_evr.o(i.EvrRtxThreadUnblocked)
    i.EvrRtxTimerCallback                    0x00000dc0   Section        0  rtx_evr.o(i.EvrRtxTimerCallback)
    i.GPDMA_ChannelConfigure                 0x00000dc4   Section        0  gpdma_lpc17xx.o(i.GPDMA_ChannelConfigure)
    i.GPDMA_ChannelDisable                   0x00000eb8   Section        0  gpdma_lpc17xx.o(i.GPDMA_ChannelDisable)
    i.GPDMA_ChannelGetCount                  0x00000ee8   Section        0  gpdma_lpc17xx.o(i.GPDMA_ChannelGetCount)
    i.GPDMA_Initialize                       0x00000f18   Section        0  gpdma_lpc17xx.o(i.GPDMA_Initialize)
    i.GPDMA_PeripheralSelect                 0x00000fc0   Section        0  gpdma_lpc17xx.o(i.GPDMA_PeripheralSelect)
    i.GPDMA_Uninitialize                     0x00001004   Section        0  gpdma_lpc17xx.o(i.GPDMA_Uninitialize)
    i.GPIO_PinWrite                          0x00001084   Section        0  gpio_lpc17xx.o(i.GPIO_PinWrite)
    i.GPIO_SetDir                            0x000010ac   Section        0  gpio_lpc17xx.o(i.GPIO_SetDir)
    i.GetI2CClockFreq                        0x000010e4   Section        0  i2c_lpc17xx.o(i.GetI2CClockFreq)
    GetI2CClockFreq                          0x000010e5   Thumb Code    60  i2c_lpc17xx.o(i.GetI2CClockFreq)
    i.GetUsartClockFreq                      0x00001124   Section        0  uart_lpc17xx.o(i.GetUsartClockFreq)
    GetUsartClockFreq                        0x00001125   Thumb Code    62  uart_lpc17xx.o(i.GetUsartClockFreq)
    i.I2C1_Control                           0x00001168   Section        0  i2c_lpc17xx.o(i.I2C1_Control)
    I2C1_Control                             0x00001169   Thumb Code    18  i2c_lpc17xx.o(i.I2C1_Control)
    i.I2C1_GetDataCount                      0x00001180   Section        0  i2c_lpc17xx.o(i.I2C1_GetDataCount)
    I2C1_GetDataCount                        0x00001181   Thumb Code    10  i2c_lpc17xx.o(i.I2C1_GetDataCount)
    i.I2C1_GetStatus                         0x00001190   Section        0  i2c_lpc17xx.o(i.I2C1_GetStatus)
    I2C1_GetStatus                           0x00001191   Thumb Code    12  i2c_lpc17xx.o(i.I2C1_GetStatus)
    i.I2C1_IRQHandler                        0x000011a0   Section        0  i2c_lpc17xx.o(i.I2C1_IRQHandler)
    i.I2C1_Initialize                        0x000011b0   Section        0  i2c_lpc17xx.o(i.I2C1_Initialize)
    I2C1_Initialize                          0x000011b1   Thumb Code    14  i2c_lpc17xx.o(i.I2C1_Initialize)
    i.I2C1_MasterReceive                     0x000011c4   Section        0  i2c_lpc17xx.o(i.I2C1_MasterReceive)
    I2C1_MasterReceive                       0x000011c5   Thumb Code    28  i2c_lpc17xx.o(i.I2C1_MasterReceive)
    i.I2C1_MasterTransmit                    0x000011e4   Section        0  i2c_lpc17xx.o(i.I2C1_MasterTransmit)
    I2C1_MasterTransmit                      0x000011e5   Thumb Code    28  i2c_lpc17xx.o(i.I2C1_MasterTransmit)
    i.I2C1_PowerControl                      0x00001204   Section        0  i2c_lpc17xx.o(i.I2C1_PowerControl)
    I2C1_PowerControl                        0x00001205   Thumb Code    14  i2c_lpc17xx.o(i.I2C1_PowerControl)
    i.I2C1_SlaveReceive                      0x00001218   Section        0  i2c_lpc17xx.o(i.I2C1_SlaveReceive)
    I2C1_SlaveReceive                        0x00001219   Thumb Code    18  i2c_lpc17xx.o(i.I2C1_SlaveReceive)
    i.I2C1_SlaveTransmit                     0x00001230   Section        0  i2c_lpc17xx.o(i.I2C1_SlaveTransmit)
    I2C1_SlaveTransmit                       0x00001231   Thumb Code    18  i2c_lpc17xx.o(i.I2C1_SlaveTransmit)
    i.I2C1_Uninitialize                      0x00001248   Section        0  i2c_lpc17xx.o(i.I2C1_Uninitialize)
    I2C1_Uninitialize                        0x00001249   Thumb Code    10  i2c_lpc17xx.o(i.I2C1_Uninitialize)
    i.I2C_GetCapabilities                    0x00001258   Section        0  i2c_lpc17xx.o(i.I2C_GetCapabilities)
    I2C_GetCapabilities                      0x00001259   Thumb Code     6  i2c_lpc17xx.o(i.I2C_GetCapabilities)
    i.I2C_GetVersion                         0x00001264   Section        0  i2c_lpc17xx.o(i.I2C_GetVersion)
    I2C_GetVersion                           0x00001265   Thumb Code    10  i2c_lpc17xx.o(i.I2C_GetVersion)
    i.I2Cx_Control                           0x00001274   Section        0  i2c_lpc17xx.o(i.I2Cx_Control)
    I2Cx_Control                             0x00001275   Thumb Code   378  i2c_lpc17xx.o(i.I2Cx_Control)
    i.I2Cx_GetDataCount                      0x00001400   Section        0  i2c_lpc17xx.o(i.I2Cx_GetDataCount)
    I2Cx_GetDataCount                        0x00001401   Thumb Code     8  i2c_lpc17xx.o(i.I2Cx_GetDataCount)
    i.I2Cx_GetStatus                         0x00001408   Section        0  i2c_lpc17xx.o(i.I2Cx_GetStatus)
    I2Cx_GetStatus                           0x00001409   Thumb Code     8  i2c_lpc17xx.o(i.I2Cx_GetStatus)
    i.I2Cx_IRQHandler                        0x00001410   Section        0  i2c_lpc17xx.o(i.I2Cx_IRQHandler)
    I2Cx_IRQHandler                          0x00001411   Thumb Code    48  i2c_lpc17xx.o(i.I2Cx_IRQHandler)
    i.I2Cx_Initialize                        0x00001440   Section        0  i2c_lpc17xx.o(i.I2Cx_Initialize)
    I2Cx_Initialize                          0x00001441   Thumb Code    78  i2c_lpc17xx.o(i.I2Cx_Initialize)
    i.I2Cx_MasterHandler                     0x0000148e   Section        0  i2c_lpc17xx.o(i.I2Cx_MasterHandler)
    I2Cx_MasterHandler                       0x0000148f   Thumb Code   462  i2c_lpc17xx.o(i.I2Cx_MasterHandler)
    i.I2Cx_MasterReceive                     0x0000165c   Section        0  i2c_lpc17xx.o(i.I2Cx_MasterReceive)
    I2Cx_MasterReceive                       0x0000165d   Thumb Code   206  i2c_lpc17xx.o(i.I2Cx_MasterReceive)
    i.I2Cx_MasterTransmit                    0x0000172a   Section        0  i2c_lpc17xx.o(i.I2Cx_MasterTransmit)
    I2Cx_MasterTransmit                      0x0000172b   Thumb Code   204  i2c_lpc17xx.o(i.I2Cx_MasterTransmit)
    i.I2Cx_PowerControl                      0x000017f6   Section        0  i2c_lpc17xx.o(i.I2Cx_PowerControl)
    I2Cx_PowerControl                        0x000017f7   Thumb Code   320  i2c_lpc17xx.o(i.I2Cx_PowerControl)
    i.I2Cx_SlaveHandler                      0x00001936   Section        0  i2c_lpc17xx.o(i.I2Cx_SlaveHandler)
    I2Cx_SlaveHandler                        0x00001937   Thumb Code   468  i2c_lpc17xx.o(i.I2Cx_SlaveHandler)
    i.I2Cx_SlaveReceive                      0x00001b0a   Section        0  i2c_lpc17xx.o(i.I2Cx_SlaveReceive)
    I2Cx_SlaveReceive                        0x00001b0b   Thumb Code   116  i2c_lpc17xx.o(i.I2Cx_SlaveReceive)
    i.I2Cx_SlaveTransmit                     0x00001b7e   Section        0  i2c_lpc17xx.o(i.I2Cx_SlaveTransmit)
    I2Cx_SlaveTransmit                       0x00001b7f   Thumb Code   116  i2c_lpc17xx.o(i.I2Cx_SlaveTransmit)
    i.I2Cx_Uninitialize                      0x00001bf2   Section        0  i2c_lpc17xx.o(i.I2Cx_Uninitialize)
    I2Cx_Uninitialize                        0x00001bf3   Thumb Code    48  i2c_lpc17xx.o(i.I2Cx_Uninitialize)
    i.MessageQueueGet                        0x00001c22   Section        0  rtx_msgqueue.o(i.MessageQueueGet)
    MessageQueueGet                          0x00001c23   Thumb Code    54  rtx_msgqueue.o(i.MessageQueueGet)
    i.MessageQueuePut                        0x00001c58   Section        0  rtx_msgqueue.o(i.MessageQueuePut)
    MessageQueuePut                          0x00001c59   Thumb Code    76  rtx_msgqueue.o(i.MessageQueuePut)
    i.MessageQueueRemove                     0x00001ca4   Section        0  rtx_msgqueue.o(i.MessageQueueRemove)
    MessageQueueRemove                       0x00001ca5   Thumb Code    34  rtx_msgqueue.o(i.MessageQueueRemove)
    i.OS_Tick_AcknowledgeIRQ                 0x00001cc6   Section        0  os_systick.o(i.OS_Tick_AcknowledgeIRQ)
    i.OS_Tick_Enable                         0x00001cd0   Section        0  os_systick.o(i.OS_Tick_Enable)
    i.OS_Tick_GetIRQn                        0x00001d00   Section        0  os_systick.o(i.OS_Tick_GetIRQn)
    i.OS_Tick_Setup                          0x00001d08   Section        0  os_systick.o(i.OS_Tick_Setup)
    i.PIN_Configure                          0x00001d78   Section        0  pin_lpc17xx.o(i.PIN_Configure)
    i.PIN_ConfigureI2C0Pins                  0x00001e74   Section        0  pin_lpc17xx.o(i.PIN_ConfigureI2C0Pins)
    i.SemaphoreTokenDecrement                0x00001e94   Section        0  rtx_semaphore.o(i.SemaphoreTokenDecrement)
    SemaphoreTokenDecrement                  0x00001e95   Thumb Code    24  rtx_semaphore.o(i.SemaphoreTokenDecrement)
    i.SemaphoreTokenIncrement                0x00001eac   Section        0  rtx_semaphore.o(i.SemaphoreTokenIncrement)
    SemaphoreTokenIncrement                  0x00001ead   Thumb Code    30  rtx_semaphore.o(i.SemaphoreTokenIncrement)
    i.Set_Channel_active_flag                0x00001ecc   Section        0  gpdma_lpc17xx.o(i.Set_Channel_active_flag)
    Set_Channel_active_flag                  0x00001ecd   Thumb Code    50  gpdma_lpc17xx.o(i.Set_Channel_active_flag)
    i.SystemCoreClockUpdate                  0x00001f04   Section        0  system_lpc17xx.o(i.SystemCoreClockUpdate)
    i.SystemInit                             0x000020ac   Section        0  system_lpc17xx.o(i.SystemInit)
    i.ThreadFlagsCheck                       0x000021ec   Section        0  rtx_thread.o(i.ThreadFlagsCheck)
    ThreadFlagsCheck                         0x000021ed   Thumb Code    86  rtx_thread.o(i.ThreadFlagsCheck)
    i.TimerInsert                            0x00002244   Section        0  rtx_timer.o(i.TimerInsert)
    TimerInsert                              0x00002245   Thumb Code    58  rtx_timer.o(i.TimerInsert)
    i.TimerUnlink                            0x00002284   Section        0  rtx_timer.o(i.TimerUnlink)
    TimerUnlink                              0x00002285   Thumb Code    18  rtx_timer.o(i.TimerUnlink)
    i.UART0_IRQHandler                       0x0000229c   Section        0  uart_lpc17xx.o(i.UART0_IRQHandler)
    i.UART1_IRQHandler                       0x000022ac   Section        0  uart_lpc17xx.o(i.UART1_IRQHandler)
    i.USART0_Control                         0x000022bc   Section        0  uart_lpc17xx.o(i.USART0_Control)
    USART0_Control                           0x000022bd   Thumb Code    18  uart_lpc17xx.o(i.USART0_Control)
    i.USART0_GPDMA_Rx_Event                  0x000022d4   Section        0  uart_lpc17xx.o(i.USART0_GPDMA_Rx_Event)
    i.USART0_GPDMA_Tx_Event                  0x000022e8   Section        0  uart_lpc17xx.o(i.USART0_GPDMA_Tx_Event)
    i.USART0_GetCapabilities                 0x000022fc   Section        0  uart_lpc17xx.o(i.USART0_GetCapabilities)
    USART0_GetCapabilities                   0x000022fd   Thumb Code    12  uart_lpc17xx.o(i.USART0_GetCapabilities)
    i.USART0_GetModemStatus                  0x0000230c   Section        0  uart_lpc17xx.o(i.USART0_GetModemStatus)
    USART0_GetModemStatus                    0x0000230d   Thumb Code    12  uart_lpc17xx.o(i.USART0_GetModemStatus)
    i.USART0_GetRxCount                      0x0000231c   Section        0  uart_lpc17xx.o(i.USART0_GetRxCount)
    USART0_GetRxCount                        0x0000231d   Thumb Code    10  uart_lpc17xx.o(i.USART0_GetRxCount)
    i.USART0_GetStatus                       0x0000232c   Section        0  uart_lpc17xx.o(i.USART0_GetStatus)
    USART0_GetStatus                         0x0000232d   Thumb Code    12  uart_lpc17xx.o(i.USART0_GetStatus)
    i.USART0_GetTxCount                      0x0000233c   Section        0  uart_lpc17xx.o(i.USART0_GetTxCount)
    USART0_GetTxCount                        0x0000233d   Thumb Code    10  uart_lpc17xx.o(i.USART0_GetTxCount)
    i.USART0_Initialize                      0x0000234c   Section        0  uart_lpc17xx.o(i.USART0_Initialize)
    USART0_Initialize                        0x0000234d   Thumb Code    14  uart_lpc17xx.o(i.USART0_Initialize)
    i.USART0_PowerControl                    0x00002360   Section        0  uart_lpc17xx.o(i.USART0_PowerControl)
    USART0_PowerControl                      0x00002361   Thumb Code    14  uart_lpc17xx.o(i.USART0_PowerControl)
    i.USART0_Receive                         0x00002374   Section        0  uart_lpc17xx.o(i.USART0_Receive)
    USART0_Receive                           0x00002375   Thumb Code    18  uart_lpc17xx.o(i.USART0_Receive)
    i.USART0_Send                            0x0000238c   Section        0  uart_lpc17xx.o(i.USART0_Send)
    USART0_Send                              0x0000238d   Thumb Code    18  uart_lpc17xx.o(i.USART0_Send)
    i.USART0_SetModemControl                 0x000023a4   Section        0  uart_lpc17xx.o(i.USART0_SetModemControl)
    USART0_SetModemControl                   0x000023a5   Thumb Code    14  uart_lpc17xx.o(i.USART0_SetModemControl)
    i.USART0_Transfer                        0x000023b8   Section        0  uart_lpc17xx.o(i.USART0_Transfer)
    USART0_Transfer                          0x000023b9   Thumb Code    22  uart_lpc17xx.o(i.USART0_Transfer)
    i.USART0_Uninitialize                    0x000023d4   Section        0  uart_lpc17xx.o(i.USART0_Uninitialize)
    USART0_Uninitialize                      0x000023d5   Thumb Code    10  uart_lpc17xx.o(i.USART0_Uninitialize)
    i.USART1_Control                         0x000023e4   Section        0  uart_lpc17xx.o(i.USART1_Control)
    USART1_Control                           0x000023e5   Thumb Code    18  uart_lpc17xx.o(i.USART1_Control)
    i.USART1_GPDMA_Rx_Event                  0x000023fc   Section        0  uart_lpc17xx.o(i.USART1_GPDMA_Rx_Event)
    i.USART1_GPDMA_Tx_Event                  0x00002410   Section        0  uart_lpc17xx.o(i.USART1_GPDMA_Tx_Event)
    i.USART1_GetCapabilities                 0x00002424   Section        0  uart_lpc17xx.o(i.USART1_GetCapabilities)
    USART1_GetCapabilities                   0x00002425   Thumb Code    12  uart_lpc17xx.o(i.USART1_GetCapabilities)
    i.USART1_GetModemStatus                  0x00002434   Section        0  uart_lpc17xx.o(i.USART1_GetModemStatus)
    USART1_GetModemStatus                    0x00002435   Thumb Code    12  uart_lpc17xx.o(i.USART1_GetModemStatus)
    i.USART1_GetRxCount                      0x00002444   Section        0  uart_lpc17xx.o(i.USART1_GetRxCount)
    USART1_GetRxCount                        0x00002445   Thumb Code    10  uart_lpc17xx.o(i.USART1_GetRxCount)
    i.USART1_GetStatus                       0x00002454   Section        0  uart_lpc17xx.o(i.USART1_GetStatus)
    USART1_GetStatus                         0x00002455   Thumb Code    12  uart_lpc17xx.o(i.USART1_GetStatus)
    i.USART1_GetTxCount                      0x00002464   Section        0  uart_lpc17xx.o(i.USART1_GetTxCount)
    USART1_GetTxCount                        0x00002465   Thumb Code    10  uart_lpc17xx.o(i.USART1_GetTxCount)
    i.USART1_Initialize                      0x00002474   Section        0  uart_lpc17xx.o(i.USART1_Initialize)
    USART1_Initialize                        0x00002475   Thumb Code    14  uart_lpc17xx.o(i.USART1_Initialize)
    i.USART1_PowerControl                    0x00002488   Section        0  uart_lpc17xx.o(i.USART1_PowerControl)
    USART1_PowerControl                      0x00002489   Thumb Code    14  uart_lpc17xx.o(i.USART1_PowerControl)
    i.USART1_Receive                         0x0000249c   Section        0  uart_lpc17xx.o(i.USART1_Receive)
    USART1_Receive                           0x0000249d   Thumb Code    18  uart_lpc17xx.o(i.USART1_Receive)
    i.USART1_Send                            0x000024b4   Section        0  uart_lpc17xx.o(i.USART1_Send)
    USART1_Send                              0x000024b5   Thumb Code    18  uart_lpc17xx.o(i.USART1_Send)
    i.USART1_SetModemControl                 0x000024cc   Section        0  uart_lpc17xx.o(i.USART1_SetModemControl)
    USART1_SetModemControl                   0x000024cd   Thumb Code    14  uart_lpc17xx.o(i.USART1_SetModemControl)
    i.USART1_Transfer                        0x000024e0   Section        0  uart_lpc17xx.o(i.USART1_Transfer)
    USART1_Transfer                          0x000024e1   Thumb Code    22  uart_lpc17xx.o(i.USART1_Transfer)
    i.USART1_Uninitialize                    0x000024fc   Section        0  uart_lpc17xx.o(i.USART1_Uninitialize)
    USART1_Uninitialize                      0x000024fd   Thumb Code    10  uart_lpc17xx.o(i.USART1_Uninitialize)
    i.USART_Control                          0x0000250c   Section        0  uart_lpc17xx.o(i.USART_Control)
    USART_Control                            0x0000250d   Thumb Code  1644  uart_lpc17xx.o(i.USART_Control)
    i.USART_GPDMA_Rx_Event                   0x00002b7c   Section        0  uart_lpc17xx.o(i.USART_GPDMA_Rx_Event)
    USART_GPDMA_Rx_Event                     0x00002b7d   Thumb Code   134  uart_lpc17xx.o(i.USART_GPDMA_Rx_Event)
    i.USART_GPDMA_Tx_Event                   0x00002c02   Section        0  uart_lpc17xx.o(i.USART_GPDMA_Tx_Event)
    USART_GPDMA_Tx_Event                     0x00002c03   Thumb Code    74  uart_lpc17xx.o(i.USART_GPDMA_Tx_Event)
    i.USART_GetCapabilities                  0x00002c4c   Section        0  uart_lpc17xx.o(i.USART_GetCapabilities)
    USART_GetCapabilities                    0x00002c4d   Thumb Code     6  uart_lpc17xx.o(i.USART_GetCapabilities)
    i.USART_GetModemStatus                   0x00002c52   Section        0  uart_lpc17xx.o(i.USART_GetModemStatus)
    USART_GetModemStatus                     0x00002c53   Thumb Code   236  uart_lpc17xx.o(i.USART_GetModemStatus)
    i.USART_GetRxCount                       0x00002d3e   Section        0  uart_lpc17xx.o(i.USART_GetRxCount)
    USART_GetRxCount                         0x00002d3f   Thumb Code    28  uart_lpc17xx.o(i.USART_GetRxCount)
    i.USART_GetStatus                        0x00002d5a   Section        0  uart_lpc17xx.o(i.USART_GetStatus)
    USART_GetStatus                          0x00002d5b   Thumb Code   188  uart_lpc17xx.o(i.USART_GetStatus)
    i.USART_GetTxCount                       0x00002e16   Section        0  uart_lpc17xx.o(i.USART_GetTxCount)
    USART_GetTxCount                         0x00002e17   Thumb Code    28  uart_lpc17xx.o(i.USART_GetTxCount)
    i.USART_IRQHandler                       0x00002e32   Section        0  uart_lpc17xx.o(i.USART_IRQHandler)
    USART_IRQHandler                         0x00002e33   Thumb Code   620  uart_lpc17xx.o(i.USART_IRQHandler)
    i.USART_Initialize                       0x0000309e   Section        0  uart_lpc17xx.o(i.USART_Initialize)
    USART_Initialize                         0x0000309f   Thumb Code   254  uart_lpc17xx.o(i.USART_Initialize)
    i.USART_PowerControl                     0x0000319c   Section        0  uart_lpc17xx.o(i.USART_PowerControl)
    USART_PowerControl                       0x0000319d   Thumb Code   584  uart_lpc17xx.o(i.USART_PowerControl)
    i.USART_Receive                          0x000033e8   Section        0  uart_lpc17xx.o(i.USART_Receive)
    USART_Receive                            0x000033e9   Thumb Code   272  uart_lpc17xx.o(i.USART_Receive)
    i.USART_RxLineIntHandler                 0x000034f8   Section        0  uart_lpc17xx.o(i.USART_RxLineIntHandler)
    USART_RxLineIntHandler                   0x000034f9   Thumb Code   104  uart_lpc17xx.o(i.USART_RxLineIntHandler)
    i.USART_Send                             0x00003560   Section        0  uart_lpc17xx.o(i.USART_Send)
    USART_Send                               0x00003561   Thumb Code   412  uart_lpc17xx.o(i.USART_Send)
    i.USART_SetBaudrate                      0x000036fc   Section        0  uart_lpc17xx.o(i.USART_SetBaudrate)
    i.USART_SetModemControl                  0x00003830   Section        0  uart_lpc17xx.o(i.USART_SetModemControl)
    USART_SetModemControl                    0x00003831   Thumb Code   160  uart_lpc17xx.o(i.USART_SetModemControl)
    i.USART_Transfer                         0x000038d0   Section        0  uart_lpc17xx.o(i.USART_Transfer)
    USART_Transfer                           0x000038d1   Thumb Code   122  uart_lpc17xx.o(i.USART_Transfer)
    i.USART_Uninitialize                     0x0000394a   Section        0  uart_lpc17xx.o(i.USART_Uninitialize)
    USART_Uninitialize                       0x0000394b   Thumb Code   226  uart_lpc17xx.o(i.USART_Uninitialize)
    i.USARTx_GetVersion                      0x00003a2c   Section        0  uart_lpc17xx.o(i.USARTx_GetVersion)
    USARTx_GetVersion                        0x00003a2d   Thumb Code    10  uart_lpc17xx.o(i.USARTx_GetVersion)
    i._Z10imuUpdaterPv                       0x00003a3c   Section        0  main.o(i._Z10imuUpdaterPv)
    i._Z12I2C_callbackj                      0x00003ae8   Section        0  main.o(i._Z12I2C_callbackj)
    i._Z13computeEnginePv                    0x00003b28   Section        0  main.o(i._Z13computeEnginePv)
    i._Z13ledInitializev                     0x00003d58   Section        0  main.o(i._Z13ledInitializev)
    i._Z14i2c1Initializev                    0x00003d68   Section        0  main.o(i._Z14i2c1Initializev)
    i._Z15heartBeatThreadPv                  0x00003d98   Section        0  main.o(i._Z15heartBeatThreadPv)
    i._Z9configI2Cv                          0x00003dc0   Section        0  main.o(i._Z9configI2Cv)
    i._Z9configPWMv                          0x00003e24   Section        0  main.o(i._Z9configPWMv)
    i.__NVIC_ClearPendingIRQ                 0x00003e54   Section        0  i2c_lpc17xx.o(i.__NVIC_ClearPendingIRQ)
    __NVIC_ClearPendingIRQ                   0x00003e55   Thumb Code    22  i2c_lpc17xx.o(i.__NVIC_ClearPendingIRQ)
    i.__NVIC_ClearPendingIRQ                 0x00003e70   Section        0  uart_lpc17xx.o(i.__NVIC_ClearPendingIRQ)
    __NVIC_ClearPendingIRQ                   0x00003e71   Thumb Code    22  uart_lpc17xx.o(i.__NVIC_ClearPendingIRQ)
    i.__NVIC_ClearPendingIRQ                 0x00003e8c   Section        0  gpdma_lpc17xx.o(i.__NVIC_ClearPendingIRQ)
    __NVIC_ClearPendingIRQ                   0x00003e8d   Thumb Code    22  gpdma_lpc17xx.o(i.__NVIC_ClearPendingIRQ)
    i.__NVIC_DisableIRQ                      0x00003ea8   Section        0  i2c_lpc17xx.o(i.__NVIC_DisableIRQ)
    __NVIC_DisableIRQ                        0x00003ea9   Thumb Code    54  i2c_lpc17xx.o(i.__NVIC_DisableIRQ)
    i.__NVIC_EnableIRQ                       0x00003ee4   Section        0  i2c_lpc17xx.o(i.__NVIC_EnableIRQ)
    __NVIC_EnableIRQ                         0x00003ee5   Thumb Code    26  i2c_lpc17xx.o(i.__NVIC_EnableIRQ)
    i.__get_BASEPRI                          0x00003efe   Section        0  rtx_kernel.o(i.__get_BASEPRI)
    __get_BASEPRI                            0x00003eff   Thumb Code     6  rtx_kernel.o(i.__get_BASEPRI)
    i.__get_BASEPRI                          0x00003f04   Section        0  rtx_msgqueue.o(i.__get_BASEPRI)
    __get_BASEPRI                            0x00003f05   Thumb Code     6  rtx_msgqueue.o(i.__get_BASEPRI)
    i.__get_BASEPRI                          0x00003f0a   Section        0  rtx_semaphore.o(i.__get_BASEPRI)
    __get_BASEPRI                            0x00003f0b   Thumb Code     6  rtx_semaphore.o(i.__get_BASEPRI)
    i.__get_BASEPRI                          0x00003f10   Section        0  rtx_thread.o(i.__get_BASEPRI)
    __get_BASEPRI                            0x00003f11   Thumb Code     6  rtx_thread.o(i.__get_BASEPRI)
    i.__get_CONTROL                          0x00003f16   Section        0  rtx_kernel.o(i.__get_CONTROL)
    __get_CONTROL                            0x00003f17   Thumb Code     6  rtx_kernel.o(i.__get_CONTROL)
    i.__get_IPSR                             0x00003f1c   Section        0  rtx_kernel.o(i.__get_IPSR)
    __get_IPSR                               0x00003f1d   Thumb Code     6  rtx_kernel.o(i.__get_IPSR)
    i.__get_IPSR                             0x00003f22   Section        0  rtx_msgqueue.o(i.__get_IPSR)
    __get_IPSR                               0x00003f23   Thumb Code     6  rtx_msgqueue.o(i.__get_IPSR)
    i.__get_IPSR                             0x00003f28   Section        0  rtx_semaphore.o(i.__get_IPSR)
    __get_IPSR                               0x00003f29   Thumb Code     6  rtx_semaphore.o(i.__get_IPSR)
    i.__get_IPSR                             0x00003f2e   Section        0  rtx_thread.o(i.__get_IPSR)
    __get_IPSR                               0x00003f2f   Thumb Code     6  rtx_thread.o(i.__get_IPSR)
    i.__get_PRIMASK                          0x00003f34   Section        0  rtx_kernel.o(i.__get_PRIMASK)
    __get_PRIMASK                            0x00003f35   Thumb Code     6  rtx_kernel.o(i.__get_PRIMASK)
    i.__get_PRIMASK                          0x00003f3a   Section        0  rtx_msgqueue.o(i.__get_PRIMASK)
    __get_PRIMASK                            0x00003f3b   Thumb Code     6  rtx_msgqueue.o(i.__get_PRIMASK)
    i.__get_PRIMASK                          0x00003f40   Section        0  rtx_semaphore.o(i.__get_PRIMASK)
    __get_PRIMASK                            0x00003f41   Thumb Code     6  rtx_semaphore.o(i.__get_PRIMASK)
    i.__get_PRIMASK                          0x00003f46   Section        0  rtx_thread.o(i.__get_PRIMASK)
    __get_PRIMASK                            0x00003f47   Thumb Code     6  rtx_thread.o(i.__get_PRIMASK)
    i.__scatterload_copy                     0x00003f4c   Section       14  handlers.o(i.__scatterload_copy)
    i.__scatterload_null                     0x00003f5a   Section        2  handlers.o(i.__scatterload_null)
    i.__scatterload_zeroinit                 0x00003f5c   Section       14  handlers.o(i.__scatterload_zeroinit)
    i.isrRtxMessageQueueGet                  0x00003f6a   Section        0  rtx_msgqueue.o(i.isrRtxMessageQueueGet)
    isrRtxMessageQueueGet                    0x00003f6b   Thumb Code   144  rtx_msgqueue.o(i.isrRtxMessageQueueGet)
    i.isrRtxMessageQueuePut                  0x00003ffa   Section        0  rtx_msgqueue.o(i.isrRtxMessageQueuePut)
    isrRtxMessageQueuePut                    0x00003ffb   Thumb Code   158  rtx_msgqueue.o(i.isrRtxMessageQueuePut)
    i.isr_queue_get                          0x00004098   Section        0  rtx_system.o(i.isr_queue_get)
    isr_queue_get                            0x00004099   Thumb Code    44  rtx_system.o(i.isr_queue_get)
    i.isr_queue_put                          0x000040c8   Section        0  rtx_system.o(i.isr_queue_put)
    isr_queue_put                            0x000040c9   Thumb Code    56  rtx_system.o(i.isr_queue_put)
    i.main                                   0x00004104   Section        0  main.o(i.main)
    i.osDelay                                0x00004268   Section        0  rtx_delay.o(i.osDelay)
    i.osKernelInitialize                     0x000042ac   Section        0  rtx_kernel.o(i.osKernelInitialize)
    i.osKernelStart                          0x00004304   Section        0  rtx_kernel.o(i.osKernelStart)
    i.osMessageQueueGet                      0x0000435c   Section        0  rtx_msgqueue.o(i.osMessageQueueGet)
    i.osMessageQueueNew                      0x000043b0   Section        0  rtx_msgqueue.o(i.osMessageQueueNew)
    i.osMessageQueuePut                      0x00004424   Section        0  rtx_msgqueue.o(i.osMessageQueuePut)
    i.osRtxErrorNotify                       0x00004478   Section        0  rtx_config.o(i.osRtxErrorNotify)
    i.osRtxIdleThread                        0x00004498   Section        0  rtx_config.o(i.osRtxIdleThread)
    i.osRtxKernelGetState                    0x0000449c   Section        0  rtx_thread.o(i.osRtxKernelGetState)
    osRtxKernelGetState                      0x0000449d   Thumb Code     6  rtx_thread.o(i.osRtxKernelGetState)
    i.osRtxMemoryAlloc                       0x000044a8   Section        0  rtx_memory.o(i.osRtxMemoryAlloc)
    i.osRtxMemoryFree                        0x0000454a   Section        0  rtx_memory.o(i.osRtxMemoryFree)
    i.osRtxMemoryInit                        0x000045b0   Section        0  rtx_memory.o(i.osRtxMemoryInit)
    i.osRtxMemoryPoolAlloc                   0x00004602   Section        0  rtx_mempool.o(i.osRtxMemoryPoolAlloc)
    i.osRtxMemoryPoolFree                    0x0000463c   Section        0  rtx_mempool.o(i.osRtxMemoryPoolFree)
    i.osRtxMemoryPoolInit                    0x0000468a   Section        0  rtx_mempool.o(i.osRtxMemoryPoolInit)
    i.osRtxMessageQueuePostProcess           0x000046da   Section        0  rtx_msgqueue.o(i.osRtxMessageQueuePostProcess)
    i.osRtxMutexOwnerRelease                 0x000047ec   Section        0  rtx_mutex.o(i.osRtxMutexOwnerRelease)
    i.osRtxPendSV_Handler                    0x00004840   Section        0  rtx_system.o(i.osRtxPendSV_Handler)
    i.osRtxPostProcess                       0x000048a4   Section        0  rtx_system.o(i.osRtxPostProcess)
    i.osRtxSemaphorePostProcess              0x000048e0   Section        0  rtx_semaphore.o(i.osRtxSemaphorePostProcess)
    i.osRtxThreadBlock                       0x00004914   Section        0  rtx_thread.o(i.osRtxThreadBlock)
    i.osRtxThreadDelayInsert                 0x00004944   Section        0  rtx_thread.o(i.osRtxThreadDelayInsert)
    i.osRtxThreadDelayRemove                 0x000049ac   Section        0  rtx_thread.o(i.osRtxThreadDelayRemove)
    i.osRtxThreadDelayTick                   0x00004a24   Section        0  rtx_thread.o(i.osRtxThreadDelayTick)
    i.osRtxThreadDispatch                    0x00004b00   Section        0  rtx_thread.o(i.osRtxThreadDispatch)
    i.osRtxThreadFree                        0x00004b6c   Section        0  rtx_thread.o(i.osRtxThreadFree)
    osRtxThreadFree                          0x00004b6d   Thumb Code    92  rtx_thread.o(i.osRtxThreadFree)
    i.osRtxThreadGetRunning                  0x00004bcc   Section        0  rtx_thread.o(i.osRtxThreadGetRunning)
    osRtxThreadGetRunning                    0x00004bcd   Thumb Code     6  rtx_thread.o(i.osRtxThreadGetRunning)
    i.osRtxThreadListGet                     0x00004bd8   Section        0  rtx_thread.o(i.osRtxThreadListGet)
    i.osRtxThreadListPut                     0x00004bf0   Section        0  rtx_thread.o(i.osRtxThreadListPut)
    i.osRtxThreadListRemove                  0x00004c1e   Section        0  rtx_thread.o(i.osRtxThreadListRemove)
    i.osRtxThreadListRoot                    0x00004c38   Section        0  rtx_thread.o(i.osRtxThreadListRoot)
    i.osRtxThreadPostProcess                 0x00004c46   Section        0  rtx_thread.o(i.osRtxThreadPostProcess)
    i.osRtxThreadReadyPut                    0x00004c88   Section        0  rtx_thread.o(i.osRtxThreadReadyPut)
    i.osRtxThreadRegPtr                      0x00004ca0   Section        0  rtx_thread.o(i.osRtxThreadRegPtr)
    i.osRtxThreadSetRunning                  0x00004ca8   Section        0  rtx_thread.o(i.osRtxThreadSetRunning)
    osRtxThreadSetRunning                    0x00004ca9   Thumb Code     6  rtx_thread.o(i.osRtxThreadSetRunning)
    i.osRtxThreadStackCheck                  0x00004cb4   Section        0  rtx_thread.o(i.osRtxThreadStackCheck)
    i.osRtxThreadSwitch                      0x00004ce0   Section        0  rtx_thread.o(i.osRtxThreadSwitch)
    i.osRtxThreadWaitEnter                   0x00004cfc   Section        0  rtx_thread.o(i.osRtxThreadWaitEnter)
    i.osRtxThreadWaitExit                    0x00004d54   Section        0  rtx_thread.o(i.osRtxThreadWaitExit)
    i.osRtxTick_Handler                      0x00004d8c   Section        0  rtx_system.o(i.osRtxTick_Handler)
    i.osRtxTimerThread                       0x00004e24   Section        0  rtx_timer.o(i.osRtxTimerThread)
    i.osRtxTimerTick                         0x00004e7c   Section        0  rtx_timer.o(i.osRtxTimerTick)
    i.osSemaphoreAcquire                     0x00004ed8   Section        0  rtx_semaphore.o(i.osSemaphoreAcquire)
    i.osSemaphoreNew                         0x00004f68   Section        0  rtx_semaphore.o(i.osSemaphoreNew)
    i.osSemaphoreRelease                     0x00004fdc   Section        0  rtx_semaphore.o(i.osSemaphoreRelease)
    i.osThreadExit                           0x00005064   Section        0  rtx_thread.o(i.osThreadExit)
    i.osThreadNew                            0x00005084   Section        0  rtx_thread.o(i.osThreadNew)
    i.svcRtxDelay                            0x000050f8   Section        0  rtx_delay.o(i.svcRtxDelay)
    i.svcRtxKernelInitialize                 0x00005110   Section        0  rtx_kernel.o(i.svcRtxKernelInitialize)
    i.svcRtxKernelStart                      0x000053b0   Section        0  rtx_kernel.o(i.svcRtxKernelStart)
    i.svcRtxMessageQueueGet                  0x000054a8   Section        0  rtx_msgqueue.o(i.svcRtxMessageQueueGet)
    i.svcRtxMessageQueueNew                  0x000055d8   Section        0  rtx_msgqueue.o(i.svcRtxMessageQueueNew)
    i.svcRtxMessageQueuePut                  0x00005778   Section        0  rtx_msgqueue.o(i.svcRtxMessageQueuePut)
    i.svcRtxSemaphoreAcquire                 0x00005890   Section        0  rtx_semaphore.o(i.svcRtxSemaphoreAcquire)
    i.svcRtxSemaphoreNew                     0x00005914   Section        0  rtx_semaphore.o(i.svcRtxSemaphoreNew)
    i.svcRtxSemaphoreRelease                 0x000059e8   Section        0  rtx_semaphore.o(i.svcRtxSemaphoreRelease)
    i.svcRtxThreadExit                       0x00005a60   Section        0  rtx_thread.o(i.svcRtxThreadExit)
    i.svcRtxThreadNew                        0x00005af4   Section        0  rtx_thread.o(i.svcRtxThreadNew)
    .constdata                               0x00005d60   Section        4  main.o(.constdata)
    WHOAMI                                   0x00005d60   Data           1  main.o(.constdata)
    OPRMODE                                  0x00005d61   Data           2  main.o(.constdata)
    EULERANGLE                               0x00005d63   Data           1  main.o(.constdata)
    .constdata                               0x00005d64   Section      100  rtx_lib.o(.constdata)
    os_idle_thread_attr                      0x00005d64   Data          36  rtx_lib.o(.constdata)
    os_timer_thread_attr                     0x00005d88   Data          36  rtx_lib.o(.constdata)
    os_timer_mq_attr                         0x00005dac   Data          24  rtx_lib.o(.constdata)
    .constdata                               0x00005dc8   Section      100  i2c_lpc17xx.o(.constdata)
    DriverVersion                            0x00005dc8   Data           4  i2c_lpc17xx.o(.constdata)
    DriverCapabilities                       0x00005dcc   Data           4  i2c_lpc17xx.o(.constdata)
    I2C1_Resources                           0x00005dd0   Data          44  i2c_lpc17xx.o(.constdata)
    .constdata                               0x00005e2c   Section      636  uart_lpc17xx.o(.constdata)
    usart_driver_version                     0x00005e2c   Data           4  uart_lpc17xx.o(.constdata)
    fract_div_lookup_table                   0x00005e30   Data         288  uart_lpc17xx.o(.constdata)
    UART0_DMA_Tx                             0x00005f50   Data           8  uart_lpc17xx.o(.constdata)
    UART0_DMA_Rx                             0x00005f58   Data           8  uart_lpc17xx.o(.constdata)
    USART0_Resources                         0x00005f60   Data         100  uart_lpc17xx.o(.constdata)
    USART1_DMA_Tx                            0x00005fc4   Data           8  uart_lpc17xx.o(.constdata)
    USART1_DMA_Rx                            0x00005fcc   Data           8  uart_lpc17xx.o(.constdata)
    USART1_Resources                         0x00005fd4   Data         100  uart_lpc17xx.o(.constdata)
    .conststrlit                             0x000060a8   Section       11  rtx_kernel.o(.conststrlit)
    .rodata                                  0x000060b4   Section      104  rtx_lib.o(.rodata)
    __tagsym$$used                           0x000060b4   Number         0  rtx_lib.o(.rodata)
    .bss.os                                  0x10000000   Section     4160  rtx_lib.o(.bss.os)
    os_mem                                   0x10000000   Data        4096  rtx_lib.o(.bss.os)
    os_isr_queue                             0x10001000   Data          64  rtx_lib.o(.bss.os)
    .bss.os.msgqueue.cb                      0x10001040   Section       52  rtx_lib.o(.bss.os.msgqueue.cb)
    os_timer_mq_cb                           0x10001040   Data          52  rtx_lib.o(.bss.os.msgqueue.cb)
    .bss.os.msgqueue.mem                     0x10001074   Section       80  rtx_lib.o(.bss.os.msgqueue.mem)
    os_timer_mq_data                         0x10001074   Data          80  rtx_lib.o(.bss.os.msgqueue.mem)
    .bss.os.thread.cb                        0x100010c4   Section      136  rtx_lib.o(.bss.os.thread.cb)
    os_idle_thread_cb                        0x100010c4   Data          68  rtx_lib.o(.bss.os.thread.cb)
    os_timer_thread_cb                       0x10001108   Data          68  rtx_lib.o(.bss.os.thread.cb)
    .bss.os.thread.stack                     0x10001150   Section     1200  rtx_lib.o(.bss.os.thread.stack)
    os_idle_thread_stack                     0x10001150   Data         600  rtx_lib.o(.bss.os.thread.stack)
    os_timer_thread_stack                    0x100013a8   Data         600  rtx_lib.o(.bss.os.thread.stack)
    .data                                    0x10001600   Section       76  main.o(.data)
    .data                                    0x1000164c   Section        1  os_systick.o(.data)
    PendST                                   0x1000164c   Data           1  os_systick.o(.data)
    .data                                    0x1000164d   Section        4  i2c_lpc17xx.o(.data)
    .data                                    0x10001651   Section        8  uart_lpc17xx.o(.data)
    USART0_pin_tx                            0x10001651   Data           2  uart_lpc17xx.o(.data)
    USART0_pin_rx                            0x10001653   Data           2  uart_lpc17xx.o(.data)
    USART1_pin_tx                            0x10001655   Data           2  uart_lpc17xx.o(.data)
    USART1_pin_rx                            0x10001657   Data           2  uart_lpc17xx.o(.data)
    .data                                    0x1000165c   Section        8  gpdma_lpc17xx.o(.data)
    Channel_active                           0x1000165c   Data           4  gpdma_lpc17xx.o(.data)
    Init_cnt                                 0x10001660   Data           4  gpdma_lpc17xx.o(.data)
    .data                                    0x10001664   Section        4  system_lpc17xx.o(.data)
    .data.os                                 0x10001668   Section      164  rtx_kernel.o(.data.os)
    .bss                                     0x1000170c   Section       80  main.o(.bss)
    .bss                                     0x1000175c   Section       36  i2c_lpc17xx.o(.bss)
    I2C1_Ctrl                                0x1000175c   Data          36  i2c_lpc17xx.o(.bss)
    .bss                                     0x10001780   Section      104  uart_lpc17xx.o(.bss)
    USART0_Info                              0x10001780   Data          52  uart_lpc17xx.o(.bss)
    USART1_Info                              0x100017b4   Data          52  uart_lpc17xx.o(.bss)
    .bss                                     0x100017e8   Section      160  gpdma_lpc17xx.o(.bss)
    Channel_info                             0x100017e8   Data         160  gpdma_lpc17xx.o(.bss)
    STACK                                    0x10001888   Section      768  startup_lpc17xx.o(STACK)

    Global Symbols

    Symbol Name                              Value     Ov Type        Size  Object(Section)

    BuildAttributes$$THM_ISAv4$P$D$K$B$S$PE$A:L22UL41UL21$X:L11$S22US41US21$IEEE1$IW$USESV6$~STKCKD$USESV7$~SHL$OTIME$ROPI$EBA8$MICROLIB$REQ8$PRES8$EABIv2 0x00000000   Number         0  anon$$obj.o ABSOLUTE
    __ARM_use_no_argv                        0x00000000   Number         0  main.o ABSOLUTE
    __Vectors                                0x00000000   Data           4  startup_lpc17xx.o(RESET)
    _printf_a                                0x00000000   Number         0  stubs.o ABSOLUTE
    _printf_c                                0x00000000   Number         0  stubs.o ABSOLUTE
    _printf_charcount                        0x00000000   Number         0  stubs.o ABSOLUTE
    _printf_d                                0x00000000   Number         0  stubs.o ABSOLUTE
    _printf_e                                0x00000000   Number         0  stubs.o ABSOLUTE
    _printf_f                                0x00000000   Number         0  stubs.o ABSOLUTE
    _printf_flags                            0x00000000   Number         0  stubs.o ABSOLUTE
    _printf_fp_dec                           0x00000000   Number         0  stubs.o ABSOLUTE
    _printf_fp_hex                           0x00000000   Number         0  stubs.o ABSOLUTE
    _printf_g                                0x00000000   Number         0  stubs.o ABSOLUTE
    _printf_i                                0x00000000   Number         0  stubs.o ABSOLUTE
    _printf_int_dec                          0x00000000   Number         0  stubs.o ABSOLUTE
    _printf_l                                0x00000000   Number         0  stubs.o ABSOLUTE
    _printf_lc                               0x00000000   Number         0  stubs.o ABSOLUTE
    _printf_ll                               0x00000000   Number         0  stubs.o ABSOLUTE
    _printf_lld                              0x00000000   Number         0  stubs.o ABSOLUTE
    _printf_lli                              0x00000000   Number         0  stubs.o ABSOLUTE
    _printf_llo                              0x00000000   Number         0  stubs.o ABSOLUTE
    _printf_llu                              0x00000000   Number         0  stubs.o ABSOLUTE
    _printf_llx                              0x00000000   Number         0  stubs.o ABSOLUTE
    _printf_longlong_dec                     0x00000000   Number         0  stubs.o ABSOLUTE
    _printf_longlong_hex                     0x00000000   Number         0  stubs.o ABSOLUTE
    _printf_longlong_oct                     0x00000000   Number         0  stubs.o ABSOLUTE
    _printf_ls                               0x00000000   Number         0  stubs.o ABSOLUTE
    _printf_mbtowc                           0x00000000   Number         0  stubs.o ABSOLUTE
    _printf_n                                0x00000000   Number         0  stubs.o ABSOLUTE
    _printf_o                                0x00000000   Number         0  stubs.o ABSOLUTE
    _printf_p                                0x00000000   Number         0  stubs.o ABSOLUTE
    _printf_percent                          0x00000000   Number         0  stubs.o ABSOLUTE
    _printf_pre_padding                      0x00000000   Number         0  stubs.o ABSOLUTE
    _printf_return_value                     0x00000000   Number         0  stubs.o ABSOLUTE
    _printf_s                                0x00000000   Number         0  stubs.o ABSOLUTE
    _printf_sizespec                         0x00000000   Number         0  stubs.o ABSOLUTE
    _printf_str                              0x00000000   Number         0  stubs.o ABSOLUTE
    _printf_truncate_signed                  0x00000000   Number         0  stubs.o ABSOLUTE
    _printf_truncate_unsigned                0x00000000   Number         0  stubs.o ABSOLUTE
    _printf_u                                0x00000000   Number         0  stubs.o ABSOLUTE
    _printf_wc                               0x00000000   Number         0  stubs.o ABSOLUTE
    _printf_wctomb                           0x00000000   Number         0  stubs.o ABSOLUTE
    _printf_widthprec                        0x00000000   Number         0  stubs.o ABSOLUTE
    _printf_x                                0x00000000   Number         0  stubs.o ABSOLUTE
    __cpp_initialize__aeabi_                  - Undefined Weak Reference
    __cxa_finalize                            - Undefined Weak Reference
    _clock_init                               - Undefined Weak Reference
    _microlib_exit                            - Undefined Weak Reference
    __main                                   0x000000cd   Thumb Code     0  entry.o(.ARM.Collect$$$$00000000)
    _main_stk                                0x000000cd   Thumb Code     0  entry2.o(.ARM.Collect$$$$00000001)
    _main_scatterload                        0x000000d1   Thumb Code     0  entry5.o(.ARM.Collect$$$$00000004)
    __main_after_scatterload                 0x000000d5   Thumb Code     0  entry5.o(.ARM.Collect$$$$00000004)
    _main_clock                              0x000000d5   Thumb Code     0  entry7b.o(.ARM.Collect$$$$00000008)
    _main_cpp_init                           0x000000d5   Thumb Code     0  entry8b.o(.ARM.Collect$$$$0000000A)
    _main_init                               0x000000d5   Thumb Code     0  entry9a.o(.ARM.Collect$$$$0000000B)
    __rt_final_cpp                           0x000000dd   Thumb Code     0  entry10a.o(.ARM.Collect$$$$0000000D)
    __rt_final_exit                          0x000000dd   Thumb Code     0  entry11a.o(.ARM.Collect$$$$0000000F)
    __asm___13_rtx_mempool_c_7914b4c7__atomic_wr8 0x000000e1   Thumb Code    16  rtx_mempool.o(.emb_text)
    __asm___13_rtx_mempool_c_7914b4c7__atomic_set32 0x000000f1   Thumb Code    20  rtx_mempool.o(.emb_text)
    __asm___13_rtx_mempool_c_7914b4c7__atomic_clr32 0x00000105   Thumb Code    22  rtx_mempool.o(.emb_text)
    __asm___13_rtx_mempool_c_7914b4c7__atomic_chk32_all 0x0000011b   Thumb Code    38  rtx_mempool.o(.emb_text)
    __asm___13_rtx_mempool_c_7914b4c7__atomic_chk32_any 0x00000141   Thumb Code    34  rtx_mempool.o(.emb_text)
    __asm___13_rtx_mempool_c_7914b4c7__atomic_inc32 0x00000163   Thumb Code    18  rtx_mempool.o(.emb_text)
    __asm___13_rtx_mempool_c_7914b4c7__atomic_inc32_lt 0x00000175   Thumb Code    30  rtx_mempool.o(.emb_text)
    __asm___13_rtx_mempool_c_7914b4c7__atomic_inc16_lt 0x00000193   Thumb Code    30  rtx_mempool.o(.emb_text)
    __asm___13_rtx_mempool_c_7914b4c7__atomic_inc16_lim 0x000001b1   Thumb Code    26  rtx_mempool.o(.emb_text)
    __asm___13_rtx_mempool_c_7914b4c7__atomic_dec32_nz 0x000001cb   Thumb Code    26  rtx_mempool.o(.emb_text)
    __asm___13_rtx_mempool_c_7914b4c7__atomic_dec16_nz 0x000001e5   Thumb Code    26  rtx_mempool.o(.emb_text)
    __asm___13_rtx_mempool_c_7914b4c7__atomic_link_get 0x000001ff   Thumb Code    26  rtx_mempool.o(.emb_text)
    __asm___13_rtx_mempool_c_7914b4c7__atomic_link_put 0x00000219   Thumb Code    28  rtx_mempool.o(.emb_text)
    SVC_Handler                              0x00000235   Thumb Code    96  irq_cm3.o(.text)
    PendSV_Handler                           0x00000295   Thumb Code    16  irq_cm3.o(.text)
    SysTick_Handler                          0x000002a5   Thumb Code    16  irq_cm3.o(.text)
    Reset_Handler                            0x000002bd   Thumb Code     8  startup_lpc17xx.o(.text)
    NMI_Handler                              0x000002c5   Thumb Code     2  startup_lpc17xx.o(.text)
    HardFault_Handler                        0x000002c7   Thumb Code     2  startup_lpc17xx.o(.text)
    MemManage_Handler                        0x000002c9   Thumb Code     2  startup_lpc17xx.o(.text)
    BusFault_Handler                         0x000002cb   Thumb Code     2  startup_lpc17xx.o(.text)
    UsageFault_Handler                       0x000002cd   Thumb Code     2  startup_lpc17xx.o(.text)
    DebugMon_Handler                         0x000002d1   Thumb Code     2  startup_lpc17xx.o(.text)
    ADC_IRQHandler                           0x000002d7   Thumb Code     0  startup_lpc17xx.o(.text)
    BOD_IRQHandler                           0x000002d7   Thumb Code     0  startup_lpc17xx.o(.text)
    CANActivity_IRQHandler                   0x000002d7   Thumb Code     0  startup_lpc17xx.o(.text)
    CAN_IRQHandler                           0x000002d7   Thumb Code     0  startup_lpc17xx.o(.text)
    EINT0_IRQHandler                         0x000002d7   Thumb Code     0  startup_lpc17xx.o(.text)
    EINT1_IRQHandler                         0x000002d7   Thumb Code     0  startup_lpc17xx.o(.text)
    EINT2_IRQHandler                         0x000002d7   Thumb Code     0  startup_lpc17xx.o(.text)
    EINT3_IRQHandler                         0x000002d7   Thumb Code     0  startup_lpc17xx.o(.text)
    ENET_IRQHandler                          0x000002d7   Thumb Code     0  startup_lpc17xx.o(.text)
    I2C0_IRQHandler                          0x000002d7   Thumb Code     0  startup_lpc17xx.o(.text)
    I2C2_IRQHandler                          0x000002d7   Thumb Code     0  startup_lpc17xx.o(.text)
    I2S_IRQHandler                           0x000002d7   Thumb Code     0  startup_lpc17xx.o(.text)
    MCPWM_IRQHandler                         0x000002d7   Thumb Code     0  startup_lpc17xx.o(.text)
    PLL0_IRQHandler                          0x000002d7   Thumb Code     0  startup_lpc17xx.o(.text)
    PLL1_IRQHandler                          0x000002d7   Thumb Code     0  startup_lpc17xx.o(.text)
    PWM1_IRQHandler                          0x000002d7   Thumb Code     0  startup_lpc17xx.o(.text)
    QEI_IRQHandler                           0x000002d7   Thumb Code     0  startup_lpc17xx.o(.text)
    RIT_IRQHandler                           0x000002d7   Thumb Code     0  startup_lpc17xx.o(.text)
    RTC_IRQHandler                           0x000002d7   Thumb Code     0  startup_lpc17xx.o(.text)
    SPI_IRQHandler                           0x000002d7   Thumb Code     0  startup_lpc17xx.o(.text)
    SSP0_IRQHandler                          0x000002d7   Thumb Code     0  startup_lpc17xx.o(.text)
    SSP1_IRQHandler                          0x000002d7   Thumb Code     0  startup_lpc17xx.o(.text)
    TIMER0_IRQHandler                        0x000002d7   Thumb Code     0  startup_lpc17xx.o(.text)
    TIMER1_IRQHandler                        0x000002d7   Thumb Code     0  startup_lpc17xx.o(.text)
    TIMER2_IRQHandler                        0x000002d7   Thumb Code     0  startup_lpc17xx.o(.text)
    TIMER3_IRQHandler                        0x000002d7   Thumb Code     0  startup_lpc17xx.o(.text)
    UART2_IRQHandler                         0x000002d7   Thumb Code     0  startup_lpc17xx.o(.text)
    UART3_IRQHandler                         0x000002d7   Thumb Code     0  startup_lpc17xx.o(.text)
    USBActivity_IRQHandler                   0x000002d7   Thumb Code     0  startup_lpc17xx.o(.text)
    USB_IRQHandler                           0x000002d7   Thumb Code     0  startup_lpc17xx.o(.text)
    WDT_IRQHandler                           0x000002d7   Thumb Code     0  startup_lpc17xx.o(.text)
    __aeabi_i2f                              0x000002e1   Thumb Code    18  fflti.o(.text)
    EvrRtxEventFlagsWaitTimeout              0x000002f3   Thumb Code     2  rtx_evr.o(i.EvrRtxEventFlagsWaitTimeout)
    __I$use$fp                               0x000002f3   Thumb Code     0  iusefp.o(.text)
    EvrRtxKernelError                        0x000002f5   Thumb Code     2  rtx_evr.o(i.EvrRtxKernelError)
    EvrRtxKernelInitialize                   0x000002f7   Thumb Code     2  rtx_evr.o(i.EvrRtxKernelInitialize)
    EvrRtxKernelInitializeCompleted          0x000002f9   Thumb Code     2  rtx_evr.o(i.EvrRtxKernelInitializeCompleted)
    EvrRtxKernelStart                        0x000002fb   Thumb Code     2  rtx_evr.o(i.EvrRtxKernelStart)
    __asm___14_rtx_msgqueue_c_3fd3b50e__atomic_wr8 0x00000301   Thumb Code    16  rtx_msgqueue.o(.emb_text)
    __asm___14_rtx_msgqueue_c_3fd3b50e__atomic_set32 0x00000311   Thumb Code    20  rtx_msgqueue.o(.emb_text)
    __asm___14_rtx_msgqueue_c_3fd3b50e__atomic_clr32 0x00000325   Thumb Code    22  rtx_msgqueue.o(.emb_text)
    __asm___14_rtx_msgqueue_c_3fd3b50e__atomic_chk32_all 0x0000033b   Thumb Code    38  rtx_msgqueue.o(.emb_text)
    __asm___14_rtx_msgqueue_c_3fd3b50e__atomic_chk32_any 0x00000361   Thumb Code    34  rtx_msgqueue.o(.emb_text)
    __asm___14_rtx_msgqueue_c_3fd3b50e__atomic_inc32 0x00000383   Thumb Code    18  rtx_msgqueue.o(.emb_text)
    __asm___14_rtx_msgqueue_c_3fd3b50e__atomic_inc32_lt 0x00000395   Thumb Code    30  rtx_msgqueue.o(.emb_text)
    __asm___14_rtx_msgqueue_c_3fd3b50e__atomic_inc16_lt 0x000003b3   Thumb Code    30  rtx_msgqueue.o(.emb_text)
    __asm___14_rtx_msgqueue_c_3fd3b50e__atomic_inc16_lim 0x000003d1   Thumb Code    26  rtx_msgqueue.o(.emb_text)
    __asm___14_rtx_msgqueue_c_3fd3b50e__atomic_dec32_nz 0x000003eb   Thumb Code    26  rtx_msgqueue.o(.emb_text)
    __asm___14_rtx_msgqueue_c_3fd3b50e__atomic_dec16_nz 0x00000405   Thumb Code    26  rtx_msgqueue.o(.emb_text)
    __asm___14_rtx_msgqueue_c_3fd3b50e__atomic_link_get 0x0000041f   Thumb Code    26  rtx_msgqueue.o(.emb_text)
    __asm___14_rtx_msgqueue_c_3fd3b50e__atomic_link_put 0x00000439   Thumb Code    28  rtx_msgqueue.o(.emb_text)
    __asm___15_rtx_semaphore_c_eca73427__atomic_wr8 0x00000455   Thumb Code    16  rtx_semaphore.o(.emb_text)
    __asm___15_rtx_semaphore_c_eca73427__atomic_set32 0x00000465   Thumb Code    20  rtx_semaphore.o(.emb_text)
    __asm___15_rtx_semaphore_c_eca73427__atomic_clr32 0x00000479   Thumb Code    22  rtx_semaphore.o(.emb_text)
    __asm___15_rtx_semaphore_c_eca73427__atomic_chk32_all 0x0000048f   Thumb Code    38  rtx_semaphore.o(.emb_text)
    __asm___15_rtx_semaphore_c_eca73427__atomic_chk32_any 0x000004b5   Thumb Code    34  rtx_semaphore.o(.emb_text)
    __asm___15_rtx_semaphore_c_eca73427__atomic_inc32 0x000004d7   Thumb Code    18  rtx_semaphore.o(.emb_text)
    __asm___15_rtx_semaphore_c_eca73427__atomic_inc32_lt 0x000004e9   Thumb Code    30  rtx_semaphore.o(.emb_text)
    __asm___15_rtx_semaphore_c_eca73427__atomic_inc16_lt 0x00000507   Thumb Code    30  rtx_semaphore.o(.emb_text)
    __asm___15_rtx_semaphore_c_eca73427__atomic_inc16_lim 0x00000525   Thumb Code    26  rtx_semaphore.o(.emb_text)
    __asm___15_rtx_semaphore_c_eca73427__atomic_dec32_nz 0x0000053f   Thumb Code    26  rtx_semaphore.o(.emb_text)
    __asm___15_rtx_semaphore_c_eca73427__atomic_dec16_nz 0x00000559   Thumb Code    26  rtx_semaphore.o(.emb_text)
    __asm___15_rtx_semaphore_c_eca73427__atomic_link_get 0x00000573   Thumb Code    26  rtx_semaphore.o(.emb_text)
    __asm___15_rtx_semaphore_c_eca73427__atomic_link_put 0x0000058d   Thumb Code    28  rtx_semaphore.o(.emb_text)
    __asm___12_rtx_system_c_024f2f18__atomic_wr8 0x000005a9   Thumb Code    16  rtx_system.o(.emb_text)
    __asm___12_rtx_system_c_024f2f18__atomic_set32 0x000005b9   Thumb Code    20  rtx_system.o(.emb_text)
    __asm___12_rtx_system_c_024f2f18__atomic_clr32 0x000005cd   Thumb Code    22  rtx_system.o(.emb_text)
    __asm___12_rtx_system_c_024f2f18__atomic_chk32_all 0x000005e3   Thumb Code    38  rtx_system.o(.emb_text)
    __asm___12_rtx_system_c_024f2f18__atomic_chk32_any 0x00000609   Thumb Code    34  rtx_system.o(.emb_text)
    __asm___12_rtx_system_c_024f2f18__atomic_inc32 0x0000062b   Thumb Code    18  rtx_system.o(.emb_text)
    __asm___12_rtx_system_c_024f2f18__atomic_inc32_lt 0x0000063d   Thumb Code    30  rtx_system.o(.emb_text)
    __asm___12_rtx_system_c_024f2f18__atomic_inc16_lt 0x0000065b   Thumb Code    30  rtx_system.o(.emb_text)
    __asm___12_rtx_system_c_024f2f18__atomic_inc16_lim 0x00000679   Thumb Code    26  rtx_system.o(.emb_text)
    __asm___12_rtx_system_c_024f2f18__atomic_dec32_nz 0x00000693   Thumb Code    26  rtx_system.o(.emb_text)
    __asm___12_rtx_system_c_024f2f18__atomic_dec16_nz 0x000006ad   Thumb Code    26  rtx_system.o(.emb_text)
    __asm___12_rtx_system_c_024f2f18__atomic_link_get 0x000006c7   Thumb Code    26  rtx_system.o(.emb_text)
    __asm___12_rtx_system_c_024f2f18__atomic_link_put 0x000006e1   Thumb Code    28  rtx_system.o(.emb_text)
    __asm___12_rtx_thread_c_add96be5__atomic_wr8 0x000006fd   Thumb Code    16  rtx_thread.o(.emb_text)
    __asm___12_rtx_thread_c_add96be5__atomic_set32 0x0000070d   Thumb Code    20  rtx_thread.o(.emb_text)
    __asm___12_rtx_thread_c_add96be5__atomic_clr32 0x00000721   Thumb Code    22  rtx_thread.o(.emb_text)
    __asm___12_rtx_thread_c_add96be5__atomic_chk32_all 0x00000737   Thumb Code    38  rtx_thread.o(.emb_text)
    __asm___12_rtx_thread_c_add96be5__atomic_chk32_any 0x0000075d   Thumb Code    34  rtx_thread.o(.emb_text)
    __asm___12_rtx_thread_c_add96be5__atomic_inc32 0x0000077f   Thumb Code    18  rtx_thread.o(.emb_text)
    __asm___12_rtx_thread_c_add96be5__atomic_inc32_lt 0x00000791   Thumb Code    30  rtx_thread.o(.emb_text)
    __asm___12_rtx_thread_c_add96be5__atomic_inc16_lt 0x000007af   Thumb Code    30  rtx_thread.o(.emb_text)
    __asm___12_rtx_thread_c_add96be5__atomic_inc16_lim 0x000007cd   Thumb Code    26  rtx_thread.o(.emb_text)
    __asm___12_rtx_thread_c_add96be5__atomic_dec32_nz 0x000007e7   Thumb Code    26  rtx_thread.o(.emb_text)
    __asm___12_rtx_thread_c_add96be5__atomic_dec16_nz 0x00000801   Thumb Code    26  rtx_thread.o(.emb_text)
    __asm___12_rtx_thread_c_add96be5__atomic_link_get 0x0000081b   Thumb Code    26  rtx_thread.o(.emb_text)
    __asm___12_rtx_thread_c_add96be5__atomic_link_put 0x00000835   Thumb Code    28  rtx_thread.o(.emb_text)
    __aeabi_uldivmod                         0x00000851   Thumb Code    98  uldiv.o(.text)
    __aeabi_memcpy                           0x000008b3   Thumb Code    36  memcpya.o(.text)
    __aeabi_memcpy4                          0x000008b3   Thumb Code     0  memcpya.o(.text)
    __aeabi_memcpy8                          0x000008b3   Thumb Code     0  memcpya.o(.text)
    __aeabi_memset                           0x000008d7   Thumb Code    14  memseta.o(.text)
    __aeabi_memset4                          0x000008d7   Thumb Code     0  memseta.o(.text)
    __aeabi_memset8                          0x000008d7   Thumb Code     0  memseta.o(.text)
    __aeabi_memclr                           0x000008e5   Thumb Code     4  memseta.o(.text)
    __aeabi_memclr4                          0x000008e5   Thumb Code     0  memseta.o(.text)
    __aeabi_memclr8                          0x000008e5   Thumb Code     0  memseta.o(.text)
    _memset$wrapper                          0x000008e9   Thumb Code    18  memseta.o(.text)
    __aeabi_fadd                             0x000008fb   Thumb Code   164  fadd.o(.text)
    __aeabi_fsub                             0x0000099f   Thumb Code     6  fadd.o(.text)
    __aeabi_frsub                            0x000009a5   Thumb Code     6  fadd.o(.text)
    __aeabi_fmul                             0x000009ab   Thumb Code   100  fmul.o(.text)
    __aeabi_fdiv                             0x00000a0f   Thumb Code   124  fdiv.o(.text)
    __aeabi_f2uiz                            0x00000a8b   Thumb Code    40  ffixui.o(.text)
    __aeabi_llsl                             0x00000ab3   Thumb Code    30  llshl.o(.text)
    _ll_shift_l                              0x00000ab3   Thumb Code     0  llshl.o(.text)
    __aeabi_llsr                             0x00000ad1   Thumb Code    32  llushr.o(.text)
    _ll_ushift_r                             0x00000ad1   Thumb Code     0  llushr.o(.text)
    _float_round                             0x00000af1   Thumb Code    18  fepilogue.o(.text)
    _float_epilogue                          0x00000b03   Thumb Code    92  fepilogue.o(.text)
    __scatterload                            0x00000b61   Thumb Code    28  init.o(.text)
    __scatterload_rt2                        0x00000b61   Thumb Code     0  init.o(.text)
    __decompress                             0x00000b85   Thumb Code     0  __dczerorl.o(.text)
    __decompress0                            0x00000b85   Thumb Code    58  __dczerorl.o(.text)
    DMA_IRQHandler                           0x00000be1   Thumb Code   372  gpdma_lpc17xx.o(i.DMA_IRQHandler)
    EvrRtxKernelStarted                      0x00000d61   Thumb Code     2  rtx_evr.o(i.EvrRtxKernelStarted)
    EvrRtxMemoryAlloc                        0x00000d63   Thumb Code     2  rtx_evr.o(i.EvrRtxMemoryAlloc)
    EvrRtxMemoryBlockAlloc                   0x00000d65   Thumb Code     2  rtx_evr.o(i.EvrRtxMemoryBlockAlloc)
    EvrRtxMemoryBlockFree                    0x00000d67   Thumb Code     2  rtx_evr.o(i.EvrRtxMemoryBlockFree)
    EvrRtxMemoryBlockInit                    0x00000d69   Thumb Code     2  rtx_evr.o(i.EvrRtxMemoryBlockInit)
    EvrRtxMemoryFree                         0x00000d6b   Thumb Code     2  rtx_evr.o(i.EvrRtxMemoryFree)
    EvrRtxMemoryInit                         0x00000d6d   Thumb Code     2  rtx_evr.o(i.EvrRtxMemoryInit)
    EvrRtxMemoryPoolAllocTimeout             0x00000d6f   Thumb Code     2  rtx_evr.o(i.EvrRtxMemoryPoolAllocTimeout)
    EvrRtxMessageQueueCreated                0x00000d71   Thumb Code     2  rtx_evr.o(i.EvrRtxMessageQueueCreated)
    EvrRtxMessageQueueError                  0x00000d73   Thumb Code     2  rtx_evr.o(i.EvrRtxMessageQueueError)
    EvrRtxMessageQueueGet                    0x00000d75   Thumb Code     2  rtx_evr.o(i.EvrRtxMessageQueueGet)
    EvrRtxMessageQueueGetPending             0x00000d77   Thumb Code     2  rtx_evr.o(i.EvrRtxMessageQueueGetPending)
    EvrRtxMessageQueueGetTimeout             0x00000d79   Thumb Code     2  rtx_evr.o(i.EvrRtxMessageQueueGetTimeout)
    EvrRtxMessageQueueInsertPending          0x00000d7b   Thumb Code     2  rtx_evr.o(i.EvrRtxMessageQueueInsertPending)
    EvrRtxMessageQueueInserted               0x00000d7d   Thumb Code     2  rtx_evr.o(i.EvrRtxMessageQueueInserted)
    EvrRtxMessageQueueNew                    0x00000d7f   Thumb Code     2  rtx_evr.o(i.EvrRtxMessageQueueNew)
    EvrRtxMessageQueueNotInserted            0x00000d81   Thumb Code     2  rtx_evr.o(i.EvrRtxMessageQueueNotInserted)
    EvrRtxMessageQueueNotRetrieved           0x00000d83   Thumb Code     2  rtx_evr.o(i.EvrRtxMessageQueueNotRetrieved)
    EvrRtxMessageQueuePut                    0x00000d85   Thumb Code     2  rtx_evr.o(i.EvrRtxMessageQueuePut)
    EvrRtxMessageQueuePutPending             0x00000d87   Thumb Code     2  rtx_evr.o(i.EvrRtxMessageQueuePutPending)
    EvrRtxMessageQueuePutTimeout             0x00000d89   Thumb Code     2  rtx_evr.o(i.EvrRtxMessageQueuePutTimeout)
    EvrRtxMessageQueueRetrieved              0x00000d8b   Thumb Code     2  rtx_evr.o(i.EvrRtxMessageQueueRetrieved)
    EvrRtxMutexAcquireTimeout                0x00000d8d   Thumb Code     2  rtx_evr.o(i.EvrRtxMutexAcquireTimeout)
    EvrRtxMutexAcquired                      0x00000d8f   Thumb Code     2  rtx_evr.o(i.EvrRtxMutexAcquired)
    EvrRtxMutexReleased                      0x00000d91   Thumb Code     2  rtx_evr.o(i.EvrRtxMutexReleased)
    EvrRtxSemaphoreAcquire                   0x00000d93   Thumb Code     2  rtx_evr.o(i.EvrRtxSemaphoreAcquire)
    EvrRtxSemaphoreAcquirePending            0x00000d95   Thumb Code     2  rtx_evr.o(i.EvrRtxSemaphoreAcquirePending)
    EvrRtxSemaphoreAcquireTimeout            0x00000d97   Thumb Code     2  rtx_evr.o(i.EvrRtxSemaphoreAcquireTimeout)
    EvrRtxSemaphoreAcquired                  0x00000d99   Thumb Code     2  rtx_evr.o(i.EvrRtxSemaphoreAcquired)
    EvrRtxSemaphoreCreated                   0x00000d9b   Thumb Code     2  rtx_evr.o(i.EvrRtxSemaphoreCreated)
    EvrRtxSemaphoreError                     0x00000d9d   Thumb Code     2  rtx_evr.o(i.EvrRtxSemaphoreError)
    EvrRtxSemaphoreNew                       0x00000d9f   Thumb Code     2  rtx_evr.o(i.EvrRtxSemaphoreNew)
    EvrRtxSemaphoreNotAcquired               0x00000da1   Thumb Code     2  rtx_evr.o(i.EvrRtxSemaphoreNotAcquired)
    EvrRtxSemaphoreRelease                   0x00000da3   Thumb Code     2  rtx_evr.o(i.EvrRtxSemaphoreRelease)
    EvrRtxSemaphoreReleased                  0x00000da5   Thumb Code     2  rtx_evr.o(i.EvrRtxSemaphoreReleased)
    EvrRtxThreadBlocked                      0x00000da7   Thumb Code     2  rtx_evr.o(i.EvrRtxThreadBlocked)
    EvrRtxThreadCreated                      0x00000da9   Thumb Code     2  rtx_evr.o(i.EvrRtxThreadCreated)
    EvrRtxThreadDelay                        0x00000dab   Thumb Code     2  rtx_evr.o(i.EvrRtxThreadDelay)
    EvrRtxThreadDelayCompleted               0x00000dad   Thumb Code     2  rtx_evr.o(i.EvrRtxThreadDelayCompleted)
    EvrRtxThreadDestroyed                    0x00000daf   Thumb Code     2  rtx_evr.o(i.EvrRtxThreadDestroyed)
    EvrRtxThreadError                        0x00000db1   Thumb Code     2  rtx_evr.o(i.EvrRtxThreadError)
    EvrRtxThreadExit                         0x00000db3   Thumb Code     2  rtx_evr.o(i.EvrRtxThreadExit)
    EvrRtxThreadFlagsWaitCompleted           0x00000db5   Thumb Code     2  rtx_evr.o(i.EvrRtxThreadFlagsWaitCompleted)
    EvrRtxThreadFlagsWaitTimeout             0x00000db7   Thumb Code     2  rtx_evr.o(i.EvrRtxThreadFlagsWaitTimeout)
    EvrRtxThreadJoined                       0x00000db9   Thumb Code     2  rtx_evr.o(i.EvrRtxThreadJoined)
    EvrRtxThreadNew                          0x00000dbb   Thumb Code     2  rtx_evr.o(i.EvrRtxThreadNew)
    EvrRtxThreadSwitch                       0x00000dbd   Thumb Code     2  rtx_evr.o(i.EvrRtxThreadSwitch)
    EvrRtxThreadUnblocked                    0x00000dbf   Thumb Code     2  rtx_evr.o(i.EvrRtxThreadUnblocked)
    EvrRtxTimerCallback                      0x00000dc1   Thumb Code     2  rtx_evr.o(i.EvrRtxTimerCallback)
    GPDMA_ChannelConfigure                   0x00000dc5   Thumb Code   232  gpdma_lpc17xx.o(i.GPDMA_ChannelConfigure)
    GPDMA_ChannelDisable                     0x00000eb9   Thumb Code    44  gpdma_lpc17xx.o(i.GPDMA_ChannelDisable)
    GPDMA_ChannelGetCount                    0x00000ee9   Thumb Code    38  gpdma_lpc17xx.o(i.GPDMA_ChannelGetCount)
    GPDMA_Initialize                         0x00000f19   Thumb Code   146  gpdma_lpc17xx.o(i.GPDMA_Initialize)
    GPDMA_PeripheralSelect                   0x00000fc1   Thumb Code    62  gpdma_lpc17xx.o(i.GPDMA_PeripheralSelect)
    GPDMA_Uninitialize                       0x00001005   Thumb Code   116  gpdma_lpc17xx.o(i.GPDMA_Uninitialize)
    GPIO_PinWrite                            0x00001085   Thumb Code    36  gpio_lpc17xx.o(i.GPIO_PinWrite)
    GPIO_SetDir                              0x000010ad   Thumb Code    52  gpio_lpc17xx.o(i.GPIO_SetDir)
    I2C1_IRQHandler                          0x000011a1   Thumb Code    10  i2c_lpc17xx.o(i.I2C1_IRQHandler)
    OS_Tick_AcknowledgeIRQ                   0x00001cc7   Thumb Code    10  os_systick.o(i.OS_Tick_AcknowledgeIRQ)
    OS_Tick_Enable                           0x00001cd1   Thumb Code    40  os_systick.o(i.OS_Tick_Enable)
    OS_Tick_GetIRQn                          0x00001d01   Thumb Code     6  os_systick.o(i.OS_Tick_GetIRQn)
    OS_Tick_Setup                            0x00001d09   Thumb Code    96  os_systick.o(i.OS_Tick_Setup)
    PIN_Configure                            0x00001d79   Thumb Code   246  pin_lpc17xx.o(i.PIN_Configure)
    PIN_ConfigureI2C0Pins                    0x00001e75   Thumb Code    28  pin_lpc17xx.o(i.PIN_ConfigureI2C0Pins)
    SystemCoreClockUpdate                    0x00001f05   Thumb Code   408  system_lpc17xx.o(i.SystemCoreClockUpdate)
    SystemInit                               0x000020ad   Thumb Code   302  system_lpc17xx.o(i.SystemInit)
    UART0_IRQHandler                         0x0000229d   Thumb Code    10  uart_lpc17xx.o(i.UART0_IRQHandler)
    UART1_IRQHandler                         0x000022ad   Thumb Code    10  uart_lpc17xx.o(i.UART1_IRQHandler)
    USART0_GPDMA_Rx_Event                    0x000022d5   Thumb Code    14  uart_lpc17xx.o(i.USART0_GPDMA_Rx_Event)
    USART0_GPDMA_Tx_Event                    0x000022e9   Thumb Code    14  uart_lpc17xx.o(i.USART0_GPDMA_Tx_Event)
    USART1_GPDMA_Rx_Event                    0x000023fd   Thumb Code    14  uart_lpc17xx.o(i.USART1_GPDMA_Rx_Event)
    USART1_GPDMA_Tx_Event                    0x00002411   Thumb Code    14  uart_lpc17xx.o(i.USART1_GPDMA_Tx_Event)
    USART_SetBaudrate                        0x000036fd   Thumb Code   302  uart_lpc17xx.o(i.USART_SetBaudrate)
    imuUpdater(void*)                        0x00003a3d   Thumb Code   138  main.o(i._Z10imuUpdaterPv)
    I2C_callback(unsigned)                   0x00003ae9   Thumb Code    52  main.o(i._Z12I2C_callbackj)
    computeEngine(void*)                     0x00003b29   Thumb Code   486  main.o(i._Z13computeEnginePv)
    ledInitialize()                          0x00003d59   Thumb Code    14  main.o(i._Z13ledInitializev)
    i2c1Initialize()                         0x00003d69   Thumb Code    40  main.o(i._Z14i2c1Initializev)
    heartBeatThread(void*)                   0x00003d99   Thumb Code    38  main.o(i._Z15heartBeatThreadPv)
    configI2C()                              0x00003dc1   Thumb Code    80  main.o(i._Z9configI2Cv)
    configPWM()                              0x00003e25   Thumb Code    40  main.o(i._Z9configPWMv)
    __scatterload_copy                       0x00003f4d   Thumb Code    14  handlers.o(i.__scatterload_copy)
    __scatterload_null                       0x00003f5b   Thumb Code     2  handlers.o(i.__scatterload_null)
    __scatterload_zeroinit                   0x00003f5d   Thumb Code    14  handlers.o(i.__scatterload_zeroinit)
    main                                     0x00004105   Thumb Code   234  main.o(i.main)
    osDelay                                  0x00004269   Thumb Code    64  rtx_delay.o(i.osDelay)
    osKernelInitialize                       0x000042ad   Thumb Code    82  rtx_kernel.o(i.osKernelInitialize)
    osKernelStart                            0x00004305   Thumb Code    82  rtx_kernel.o(i.osKernelStart)
    osMessageQueueGet                        0x0000435d   Thumb Code    78  rtx_msgqueue.o(i.osMessageQueueGet)
    osMessageQueueNew                        0x000043b1   Thumb Code   110  rtx_msgqueue.o(i.osMessageQueueNew)
    osMessageQueuePut                        0x00004425   Thumb Code    78  rtx_msgqueue.o(i.osMessageQueuePut)
    osRtxErrorNotify                         0x00004479   Thumb Code    32  rtx_config.o(i.osRtxErrorNotify)
    osRtxIdleThread                          0x00004499   Thumb Code     4  rtx_config.o(i.osRtxIdleThread)
    osRtxMemoryAlloc                         0x000044a9   Thumb Code   162  rtx_memory.o(i.osRtxMemoryAlloc)
    osRtxMemoryFree                          0x0000454b   Thumb Code   102  rtx_memory.o(i.osRtxMemoryFree)
    osRtxMemoryInit                          0x000045b1   Thumb Code    82  rtx_memory.o(i.osRtxMemoryInit)
    osRtxMemoryPoolAlloc                     0x00004603   Thumb Code    58  rtx_mempool.o(i.osRtxMemoryPoolAlloc)
    osRtxMemoryPoolFree                      0x0000463d   Thumb Code    78  rtx_mempool.o(i.osRtxMemoryPoolFree)
    osRtxMemoryPoolInit                      0x0000468b   Thumb Code    80  rtx_mempool.o(i.osRtxMemoryPoolInit)
    osRtxMessageQueuePostProcess             0x000046db   Thumb Code   274  rtx_msgqueue.o(i.osRtxMessageQueuePostProcess)
    osRtxMutexOwnerRelease                   0x000047ed   Thumb Code    84  rtx_mutex.o(i.osRtxMutexOwnerRelease)
    osRtxPendSV_Handler                      0x00004841   Thumb Code    96  rtx_system.o(i.osRtxPendSV_Handler)
    osRtxPostProcess                         0x000048a5   Thumb Code    50  rtx_system.o(i.osRtxPostProcess)
    osRtxSemaphorePostProcess                0x000048e1   Thumb Code    50  rtx_semaphore.o(i.osRtxSemaphorePostProcess)
    osRtxThreadBlock                         0x00004915   Thumb Code    42  rtx_thread.o(i.osRtxThreadBlock)
    osRtxThreadDelayInsert                   0x00004945   Thumb Code   100  rtx_thread.o(i.osRtxThreadDelayInsert)
    osRtxThreadDelayRemove                   0x000049ad   Thumb Code   116  rtx_thread.o(i.osRtxThreadDelayRemove)
    osRtxThreadDelayTick                     0x00004a25   Thumb Code   216  rtx_thread.o(i.osRtxThreadDelayTick)
    osRtxThreadDispatch                      0x00004b01   Thumb Code   102  rtx_thread.o(i.osRtxThreadDispatch)
    osRtxThreadListGet                       0x00004bd9   Thumb Code    24  rtx_thread.o(i.osRtxThreadListGet)
    osRtxThreadListPut                       0x00004bf1   Thumb Code    46  rtx_thread.o(i.osRtxThreadListPut)
    osRtxThreadListRemove                    0x00004c1f   Thumb Code    26  rtx_thread.o(i.osRtxThreadListRemove)
    osRtxThreadListRoot                      0x00004c39   Thumb Code    14  rtx_thread.o(i.osRtxThreadListRoot)
    osRtxThreadPostProcess                   0x00004c47   Thumb Code    64  rtx_thread.o(i.osRtxThreadPostProcess)
    osRtxThreadReadyPut                      0x00004c89   Thumb Code    18  rtx_thread.o(i.osRtxThreadReadyPut)
    osRtxThreadRegPtr                        0x00004ca1   Thumb Code     8  rtx_thread.o(i.osRtxThreadRegPtr)
    osRtxThreadStackCheck                    0x00004cb5   Thumb Code    38  rtx_thread.o(i.osRtxThreadStackCheck)
    osRtxThreadSwitch                        0x00004ce1   Thumb Code    24  rtx_thread.o(i.osRtxThreadSwitch)
    osRtxThreadWaitEnter                     0x00004cfd   Thumb Code    84  rtx_thread.o(i.osRtxThreadWaitEnter)
    osRtxThreadWaitExit                      0x00004d55   Thumb Code    54  rtx_thread.o(i.osRtxThreadWaitExit)
    osRtxTick_Handler                        0x00004d8d   Thumb Code   146  rtx_system.o(i.osRtxTick_Handler)
    osRtxTimerThread                         0x00004e25   Thumb Code    74  rtx_timer.o(i.osRtxTimerThread)
    osRtxTimerTick                           0x00004e7d   Thumb Code    88  rtx_timer.o(i.osRtxTimerTick)
    osSemaphoreAcquire                       0x00004ed9   Thumb Code   138  rtx_semaphore.o(i.osSemaphoreAcquire)
    osSemaphoreNew                           0x00004f69   Thumb Code   110  rtx_semaphore.o(i.osSemaphoreNew)
    osSemaphoreRelease                       0x00004fdd   Thumb Code   132  rtx_semaphore.o(i.osSemaphoreRelease)
    osThreadExit                             0x00005065   Thumb Code    28  rtx_thread.o(i.osThreadExit)
    osThreadNew                              0x00005085   Thumb Code   110  rtx_thread.o(i.osThreadNew)
    svcRtxDelay                              0x000050f9   Thumb Code    22  rtx_delay.o(i.svcRtxDelay)
    svcRtxKernelInitialize                   0x00005111   Thumb Code   660  rtx_kernel.o(i.svcRtxKernelInitialize)
    svcRtxKernelStart                        0x000053b1   Thumb Code   228  rtx_kernel.o(i.svcRtxKernelStart)
    svcRtxMessageQueueGet                    0x000054a9   Thumb Code   300  rtx_msgqueue.o(i.svcRtxMessageQueueGet)
    svcRtxMessageQueueNew                    0x000055d9   Thumb Code   408  rtx_msgqueue.o(i.svcRtxMessageQueueNew)
    svcRtxMessageQueuePut                    0x00005779   Thumb Code   276  rtx_msgqueue.o(i.svcRtxMessageQueuePut)
    svcRtxSemaphoreAcquire                   0x00005891   Thumb Code   126  rtx_semaphore.o(i.svcRtxSemaphoreAcquire)
    svcRtxSemaphoreNew                       0x00005915   Thumb Code   204  rtx_semaphore.o(i.svcRtxSemaphoreNew)
    svcRtxSemaphoreRelease                   0x000059e9   Thumb Code   120  rtx_semaphore.o(i.svcRtxSemaphoreRelease)
    svcRtxThreadExit                         0x00005a61   Thumb Code   142  rtx_thread.o(i.svcRtxThreadExit)
    svcRtxThreadNew                          0x00005af5   Thumb Code   598  rtx_thread.o(i.svcRtxThreadNew)
    osRtxUserSVC                             0x00005dc4   Data           4  rtx_lib.o(.constdata)
    Driver_I2C1                              0x00005dfc   Data          48  i2c_lpc17xx.o(.constdata)
    Driver_USART0                            0x00006038   Data          56  uart_lpc17xx.o(.constdata)
    Driver_USART1                            0x00006070   Data          56  uart_lpc17xx.o(.constdata)
    osRtxConfig                              0x000060b4   Data         104  rtx_lib.o(.rodata)
    Region$$Table$$Base                      0x0000611c   Number         0  anon$$obj.o(Region$$Table)
    Region$$Table$$Limit                     0x0000613c   Number         0  anon$$obj.o(Region$$Table)
    Driver_USART1_STATUS                     0x10001600   Data           4  main.o(.data)
    semaphoreTransmitId                      0x10001604   Data           4  main.o(.data)
    semaphoreReceiveId                       0x10001608   Data           4  main.o(.data)
    semaphoreDataReadyId                     0x1000160c   Data           4  main.o(.data)
    eulerAngle                               0x10001610   Data           6  main.o(.data)
    eulerAngleX                              0x10001616   Data           2  main.o(.data)
    eulerAngleY                              0x10001618   Data           2  main.o(.data)
    eulerAngleZ                              0x1000161a   Data           2  main.o(.data)
    timeDiff                                 0x1000161c   Data           4  main.o(.data)
    errorPitch                               0x10001620   Data           4  main.o(.data)
    errorRoll                                0x10001624   Data           4  main.o(.data)
    errorPitchD                              0x10001628   Data           4  main.o(.data)
    errorRollD                               0x1000162c   Data           4  main.o(.data)
    errorPitchI                              0x10001630   Data           4  main.o(.data)
    errorRollI                               0x10001634   Data           4  main.o(.data)
    errorPitchPrev                           0x10001638   Data           4  main.o(.data)
    errorRollPrev                            0x1000163c   Data           4  main.o(.data)
    pidPitch                                 0x10001640   Data           4  main.o(.data)
    pidRoll                                  0x10001644   Data           4  main.o(.data)
    throttle                                 0x10001648   Data           4  main.o(.data)
    I2C1_PIN                                 0x1000164d   Data           4  i2c_lpc17xx.o(.data)
    SystemCoreClock                          0x10001664   Data           4  system_lpc17xx.o(.data)
    osRtxInfo                                0x10001668   Data         164  rtx_kernel.o(.data.os)
    Driver_USART1_INFO                       0x1000170c   Data          32  main.o(.bss)
    semaphoreTransmitAttr                    0x1000172c   Data          16  main.o(.bss)
    semaphoreReceiveAttr                     0x1000173c   Data          16  main.o(.bss)
    semaphoreDataReadyAttr                   0x1000174c   Data          16  main.o(.bss)
    __initial_sp                             0x10001b88   Data           0  startup_lpc17xx.o(STACK)



==============================================================================

Memory Map of the image

  Image Entry point : 0x000000cd

  Load Region LR_IROM1 (Base: 0x00000000, Size: 0x00007848, Max: 0x00080000, ABSOLUTE, COMPRESSED[0x00006184])

    Execution Region ER_IROM1 (Base: 0x00000000, Size: 0x0000613c, Max: 0x00080000, ABSOLUTE)

    Base Addr    Size         Type   Attr      Idx    E Section Name        Object

    0x00000000   0x000000cc   Data   RO         3890    RESET               startup_lpc17xx.o
    0x000000cc   0x00000000   Code   RO         3934  * .ARM.Collect$$$$00000000  mc_w.l(entry.o)
    0x000000cc   0x00000004   Code   RO         4216    .ARM.Collect$$$$00000001  mc_w.l(entry2.o)
    0x000000d0   0x00000004   Code   RO         4219    .ARM.Collect$$$$00000004  mc_w.l(entry5.o)
    0x000000d4   0x00000000   Code   RO         4221    .ARM.Collect$$$$00000008  mc_w.l(entry7b.o)
    0x000000d4   0x00000000   Code   RO         4223    .ARM.Collect$$$$0000000A  mc_w.l(entry8b.o)
    0x000000d4   0x00000008   Code   RO         4224    .ARM.Collect$$$$0000000B  mc_w.l(entry9a.o)
    0x000000dc   0x00000000   Code   RO         4226    .ARM.Collect$$$$0000000D  mc_w.l(entry10a.o)
    0x000000dc   0x00000000   Code   RO         4228    .ARM.Collect$$$$0000000F  mc_w.l(entry11a.o)
    0x000000dc   0x00000004   Code   RO         4217    .ARM.Collect$$$$00002712  mc_w.l(entry2.o)
    0x000000e0   0x00000154   Code   RO         1867    .emb_text           rtx_mempool.o
    0x00000234   0x00000088   Code   RO          275    .text               irq_cm3.o
    0x000002bc   0x00000024   Code   RO         3892    .text               startup_lpc17xx.o
    0x000002e0   0x00000012   Code   RO         4212    .text               mf_w.l(fflti.o)
    0x000002f2   0x00000000   Code   RO         4239    .text               mc_w.l(iusefp.o)
    0x000002f2   0x00000002   Code   RO          560    i.EvrRtxEventFlagsWaitTimeout  rtx_evr.o
    0x000002f4   0x00000002   Code   RO          561    i.EvrRtxKernelError  rtx_evr.o
    0x000002f6   0x00000002   Code   RO          569    i.EvrRtxKernelInitialize  rtx_evr.o
    0x000002f8   0x00000002   Code   RO          570    i.EvrRtxKernelInitializeCompleted  rtx_evr.o
    0x000002fa   0x00000002   Code   RO          577    i.EvrRtxKernelStart  rtx_evr.o
    0x000002fc   0x00000004   Code   RO         3891    .ARM.__at_0x02FC    startup_lpc17xx.o
    0x00000300   0x00000154   Code   RO         2041    .emb_text           rtx_msgqueue.o
    0x00000454   0x00000154   Code   RO         2347    .emb_text           rtx_semaphore.o
    0x000005a8   0x00000154   Code   RO         2472    .emb_text           rtx_system.o
    0x000006fc   0x00000154   Code   RO         2528    .emb_text           rtx_thread.o
    0x00000850   0x00000062   Code   RO         3937    .text               mc_w.l(uldiv.o)
    0x000008b2   0x00000024   Code   RO         3939    .text               mc_w.l(memcpya.o)
    0x000008d6   0x00000024   Code   RO         3941    .text               mc_w.l(memseta.o)
    0x000008fa   0x000000b0   Code   RO         4206    .text               mf_w.l(fadd.o)
    0x000009aa   0x00000064   Code   RO         4208    .text               mf_w.l(fmul.o)
    0x00000a0e   0x0000007c   Code   RO         4210    .text               mf_w.l(fdiv.o)
    0x00000a8a   0x00000028   Code   RO         4214    .text               mf_w.l(ffixui.o)
    0x00000ab2   0x0000001e   Code   RO         4235    .text               mc_w.l(llshl.o)
    0x00000ad0   0x00000020   Code   RO         4237    .text               mc_w.l(llushr.o)
    0x00000af0   0x0000006e   Code   RO         4240    .text               mf_w.l(fepilogue.o)
    0x00000b5e   0x00000002   PAD
    0x00000b60   0x00000024   Code   RO         4252    .text               mc_w.l(init.o)
    0x00000b84   0x0000003a   Code   RO         4268    .text               mc_w.l(__dczerorl.o)
    0x00000bbe   0x00000002   PAD
    0x00000bc0   0x00000020   Code   RO         3708    i.Clear_Channel_active_flag  gpdma_lpc17xx.o
    0x00000be0   0x00000180   Code   RO         3709    i.DMA_IRQHandler    gpdma_lpc17xx.o
    0x00000d60   0x00000002   Code   RO          578    i.EvrRtxKernelStarted  rtx_evr.o
    0x00000d62   0x00000002   Code   RO          583    i.EvrRtxMemoryAlloc  rtx_evr.o
    0x00000d64   0x00000002   Code   RO          584    i.EvrRtxMemoryBlockAlloc  rtx_evr.o
    0x00000d66   0x00000002   Code   RO          585    i.EvrRtxMemoryBlockFree  rtx_evr.o
    0x00000d68   0x00000002   Code   RO          586    i.EvrRtxMemoryBlockInit  rtx_evr.o
    0x00000d6a   0x00000002   Code   RO          587    i.EvrRtxMemoryFree  rtx_evr.o
    0x00000d6c   0x00000002   Code   RO          588    i.EvrRtxMemoryInit  rtx_evr.o
    0x00000d6e   0x00000002   Code   RO          592    i.EvrRtxMemoryPoolAllocTimeout  rtx_evr.o
    0x00000d70   0x00000002   Code   RO          607    i.EvrRtxMessageQueueCreated  rtx_evr.o
    0x00000d72   0x00000002   Code   RO          610    i.EvrRtxMessageQueueError  rtx_evr.o
    0x00000d74   0x00000002   Code   RO          611    i.EvrRtxMessageQueueGet  rtx_evr.o
    0x00000d76   0x00000002   Code   RO          616    i.EvrRtxMessageQueueGetPending  rtx_evr.o
    0x00000d78   0x00000002   Code   RO          618    i.EvrRtxMessageQueueGetTimeout  rtx_evr.o
    0x00000d7a   0x00000002   Code   RO          619    i.EvrRtxMessageQueueInsertPending  rtx_evr.o
    0x00000d7c   0x00000002   Code   RO          620    i.EvrRtxMessageQueueInserted  rtx_evr.o
    0x00000d7e   0x00000002   Code   RO          621    i.EvrRtxMessageQueueNew  rtx_evr.o
    0x00000d80   0x00000002   Code   RO          622    i.EvrRtxMessageQueueNotInserted  rtx_evr.o
    0x00000d82   0x00000002   Code   RO          623    i.EvrRtxMessageQueueNotRetrieved  rtx_evr.o
    0x00000d84   0x00000002   Code   RO          624    i.EvrRtxMessageQueuePut  rtx_evr.o
    0x00000d86   0x00000002   Code   RO          625    i.EvrRtxMessageQueuePutPending  rtx_evr.o
    0x00000d88   0x00000002   Code   RO          626    i.EvrRtxMessageQueuePutTimeout  rtx_evr.o
    0x00000d8a   0x00000002   Code   RO          629    i.EvrRtxMessageQueueRetrieved  rtx_evr.o
    0x00000d8c   0x00000002   Code   RO          632    i.EvrRtxMutexAcquireTimeout  rtx_evr.o
    0x00000d8e   0x00000002   Code   RO          633    i.EvrRtxMutexAcquired  rtx_evr.o
    0x00000d90   0x00000002   Code   RO          643    i.EvrRtxMutexReleased  rtx_evr.o
    0x00000d92   0x00000002   Code   RO          644    i.EvrRtxSemaphoreAcquire  rtx_evr.o
    0x00000d94   0x00000002   Code   RO          645    i.EvrRtxSemaphoreAcquirePending  rtx_evr.o
    0x00000d96   0x00000002   Code   RO          646    i.EvrRtxSemaphoreAcquireTimeout  rtx_evr.o
    0x00000d98   0x00000002   Code   RO          647    i.EvrRtxSemaphoreAcquired  rtx_evr.o
    0x00000d9a   0x00000002   Code   RO          648    i.EvrRtxSemaphoreCreated  rtx_evr.o
    0x00000d9c   0x00000002   Code   RO          651    i.EvrRtxSemaphoreError  rtx_evr.o
    0x00000d9e   0x00000002   Code   RO          654    i.EvrRtxSemaphoreNew  rtx_evr.o
    0x00000da0   0x00000002   Code   RO          655    i.EvrRtxSemaphoreNotAcquired  rtx_evr.o
    0x00000da2   0x00000002   Code   RO          656    i.EvrRtxSemaphoreRelease  rtx_evr.o
    0x00000da4   0x00000002   Code   RO          657    i.EvrRtxSemaphoreReleased  rtx_evr.o
    0x00000da6   0x00000002   Code   RO          658    i.EvrRtxThreadBlocked  rtx_evr.o
    0x00000da8   0x00000002   Code   RO          659    i.EvrRtxThreadCreated  rtx_evr.o
    0x00000daa   0x00000002   Code   RO          660    i.EvrRtxThreadDelay  rtx_evr.o
    0x00000dac   0x00000002   Code   RO          661    i.EvrRtxThreadDelayCompleted  rtx_evr.o
    0x00000dae   0x00000002   Code   RO          663    i.EvrRtxThreadDestroyed  rtx_evr.o
    0x00000db0   0x00000002   Code   RO          667    i.EvrRtxThreadError  rtx_evr.o
    0x00000db2   0x00000002   Code   RO          668    i.EvrRtxThreadExit  rtx_evr.o
    0x00000db4   0x00000002   Code   RO          675    i.EvrRtxThreadFlagsWaitCompleted  rtx_evr.o
    0x00000db6   0x00000002   Code   RO          678    i.EvrRtxThreadFlagsWaitTimeout  rtx_evr.o
    0x00000db8   0x00000002   Code   RO          688    i.EvrRtxThreadJoined  rtx_evr.o
    0x00000dba   0x00000002   Code   RO          689    i.EvrRtxThreadNew   rtx_evr.o
    0x00000dbc   0x00000002   Code   RO          695    i.EvrRtxThreadSwitch  rtx_evr.o
    0x00000dbe   0x00000002   Code   RO          697    i.EvrRtxThreadUnblocked  rtx_evr.o
    0x00000dc0   0x00000002   Code   RO          699    i.EvrRtxTimerCallback  rtx_evr.o
    0x00000dc2   0x00000002   PAD
    0x00000dc4   0x000000f4   Code   RO         3710    i.GPDMA_ChannelConfigure  gpdma_lpc17xx.o
    0x00000eb8   0x00000030   Code   RO         3711    i.GPDMA_ChannelDisable  gpdma_lpc17xx.o
    0x00000ee8   0x00000030   Code   RO         3713    i.GPDMA_ChannelGetCount  gpdma_lpc17xx.o
    0x00000f18   0x000000a8   Code   RO         3715    i.GPDMA_Initialize  gpdma_lpc17xx.o
    0x00000fc0   0x00000044   Code   RO         3716    i.GPDMA_PeripheralSelect  gpdma_lpc17xx.o
    0x00001004   0x00000080   Code   RO         3717    i.GPDMA_Uninitialize  gpdma_lpc17xx.o
    0x00001084   0x00000028   Code   RO         3799    i.GPIO_PinWrite     gpio_lpc17xx.o
    0x000010ac   0x00000038   Code   RO         3803    i.GPIO_SetDir       gpio_lpc17xx.o
    0x000010e4   0x00000040   Code   RO         3207    i.GetI2CClockFreq   i2c_lpc17xx.o
    0x00001124   0x00000044   Code   RO         3400    i.GetUsartClockFreq  uart_lpc17xx.o
    0x00001168   0x00000018   Code   RO         3208    i.I2C1_Control      i2c_lpc17xx.o
    0x00001180   0x00000010   Code   RO         3209    i.I2C1_GetDataCount  i2c_lpc17xx.o
    0x00001190   0x00000010   Code   RO         3210    i.I2C1_GetStatus    i2c_lpc17xx.o
    0x000011a0   0x00000010   Code   RO         3211    i.I2C1_IRQHandler   i2c_lpc17xx.o
    0x000011b0   0x00000014   Code   RO         3212    i.I2C1_Initialize   i2c_lpc17xx.o
    0x000011c4   0x00000020   Code   RO         3213    i.I2C1_MasterReceive  i2c_lpc17xx.o
    0x000011e4   0x00000020   Code   RO         3214    i.I2C1_MasterTransmit  i2c_lpc17xx.o
    0x00001204   0x00000014   Code   RO         3215    i.I2C1_PowerControl  i2c_lpc17xx.o
    0x00001218   0x00000018   Code   RO         3216    i.I2C1_SlaveReceive  i2c_lpc17xx.o
    0x00001230   0x00000018   Code   RO         3217    i.I2C1_SlaveTransmit  i2c_lpc17xx.o
    0x00001248   0x00000010   Code   RO         3218    i.I2C1_Uninitialize  i2c_lpc17xx.o
    0x00001258   0x0000000c   Code   RO         3219    i.I2C_GetCapabilities  i2c_lpc17xx.o
    0x00001264   0x00000010   Code   RO         3220    i.I2C_GetVersion    i2c_lpc17xx.o
    0x00001274   0x0000018c   Code   RO         3221    i.I2Cx_Control      i2c_lpc17xx.o
    0x00001400   0x00000008   Code   RO         3222    i.I2Cx_GetDataCount  i2c_lpc17xx.o
    0x00001408   0x00000008   Code   RO         3223    i.I2Cx_GetStatus    i2c_lpc17xx.o
    0x00001410   0x00000030   Code   RO         3224    i.I2Cx_IRQHandler   i2c_lpc17xx.o
    0x00001440   0x0000004e   Code   RO         3225    i.I2Cx_Initialize   i2c_lpc17xx.o
    0x0000148e   0x000001ce   Code   RO         3226    i.I2Cx_MasterHandler  i2c_lpc17xx.o
    0x0000165c   0x000000ce   Code   RO         3227    i.I2Cx_MasterReceive  i2c_lpc17xx.o
    0x0000172a   0x000000cc   Code   RO         3228    i.I2Cx_MasterTransmit  i2c_lpc17xx.o
    0x000017f6   0x00000140   Code   RO         3229    i.I2Cx_PowerControl  i2c_lpc17xx.o
    0x00001936   0x000001d4   Code   RO         3230    i.I2Cx_SlaveHandler  i2c_lpc17xx.o
    0x00001b0a   0x00000074   Code   RO         3231    i.I2Cx_SlaveReceive  i2c_lpc17xx.o
    0x00001b7e   0x00000074   Code   RO         3232    i.I2Cx_SlaveTransmit  i2c_lpc17xx.o
    0x00001bf2   0x00000030   Code   RO         3233    i.I2Cx_Uninitialize  i2c_lpc17xx.o
    0x00001c22   0x00000036   Code   RO         2042    i.MessageQueueGet   rtx_msgqueue.o
    0x00001c58   0x0000004c   Code   RO         2043    i.MessageQueuePut   rtx_msgqueue.o
    0x00001ca4   0x00000022   Code   RO         2044    i.MessageQueueRemove  rtx_msgqueue.o
    0x00001cc6   0x0000000a   Code   RO         3099    i.OS_Tick_AcknowledgeIRQ  os_systick.o
    0x00001cd0   0x00000030   Code   RO         3101    i.OS_Tick_Enable    os_systick.o
    0x00001d00   0x00000006   Code   RO         3104    i.OS_Tick_GetIRQn   os_systick.o
    0x00001d06   0x00000002   PAD
    0x00001d08   0x00000070   Code   RO         3107    i.OS_Tick_Setup     os_systick.o
    0x00001d78   0x000000fc   Code   RO         3855    i.PIN_Configure     pin_lpc17xx.o
    0x00001e74   0x00000020   Code   RO         3856    i.PIN_ConfigureI2C0Pins  pin_lpc17xx.o
    0x00001e94   0x00000018   Code   RO         2348    i.SemaphoreTokenDecrement  rtx_semaphore.o
    0x00001eac   0x0000001e   Code   RO         2349    i.SemaphoreTokenIncrement  rtx_semaphore.o
    0x00001eca   0x00000002   PAD
    0x00001ecc   0x00000038   Code   RO         3718    i.Set_Channel_active_flag  gpdma_lpc17xx.o
    0x00001f04   0x000001a8   Code   RO         3901    i.SystemCoreClockUpdate  system_lpc17xx.o
    0x000020ac   0x00000140   Code   RO         3902    i.SystemInit        system_lpc17xx.o
    0x000021ec   0x00000056   Code   RO         2529    i.ThreadFlagsCheck  rtx_thread.o
    0x00002242   0x00000002   PAD
    0x00002244   0x00000040   Code   RO         2964    i.TimerInsert       rtx_timer.o
    0x00002284   0x00000018   Code   RO         2966    i.TimerUnlink       rtx_timer.o
    0x0000229c   0x00000010   Code   RO         3401    i.UART0_IRQHandler  uart_lpc17xx.o
    0x000022ac   0x00000010   Code   RO         3402    i.UART1_IRQHandler  uart_lpc17xx.o
    0x000022bc   0x00000018   Code   RO         3403    i.USART0_Control    uart_lpc17xx.o
    0x000022d4   0x00000014   Code   RO         3404    i.USART0_GPDMA_Rx_Event  uart_lpc17xx.o
    0x000022e8   0x00000014   Code   RO         3405    i.USART0_GPDMA_Tx_Event  uart_lpc17xx.o
    0x000022fc   0x00000010   Code   RO         3406    i.USART0_GetCapabilities  uart_lpc17xx.o
    0x0000230c   0x00000010   Code   RO         3407    i.USART0_GetModemStatus  uart_lpc17xx.o
    0x0000231c   0x00000010   Code   RO         3408    i.USART0_GetRxCount  uart_lpc17xx.o
    0x0000232c   0x00000010   Code   RO         3409    i.USART0_GetStatus  uart_lpc17xx.o
    0x0000233c   0x00000010   Code   RO         3410    i.USART0_GetTxCount  uart_lpc17xx.o
    0x0000234c   0x00000014   Code   RO         3411    i.USART0_Initialize  uart_lpc17xx.o
    0x00002360   0x00000014   Code   RO         3412    i.USART0_PowerControl  uart_lpc17xx.o
    0x00002374   0x00000018   Code   RO         3413    i.USART0_Receive    uart_lpc17xx.o
    0x0000238c   0x00000018   Code   RO         3414    i.USART0_Send       uart_lpc17xx.o
    0x000023a4   0x00000014   Code   RO         3415    i.USART0_SetModemControl  uart_lpc17xx.o
    0x000023b8   0x0000001c   Code   RO         3416    i.USART0_Transfer   uart_lpc17xx.o
    0x000023d4   0x00000010   Code   RO         3417    i.USART0_Uninitialize  uart_lpc17xx.o
    0x000023e4   0x00000018   Code   RO         3418    i.USART1_Control    uart_lpc17xx.o
    0x000023fc   0x00000014   Code   RO         3419    i.USART1_GPDMA_Rx_Event  uart_lpc17xx.o
    0x00002410   0x00000014   Code   RO         3420    i.USART1_GPDMA_Tx_Event  uart_lpc17xx.o
    0x00002424   0x00000010   Code   RO         3421    i.USART1_GetCapabilities  uart_lpc17xx.o
    0x00002434   0x00000010   Code   RO         3422    i.USART1_GetModemStatus  uart_lpc17xx.o
    0x00002444   0x00000010   Code   RO         3423    i.USART1_GetRxCount  uart_lpc17xx.o
    0x00002454   0x00000010   Code   RO         3424    i.USART1_GetStatus  uart_lpc17xx.o
    0x00002464   0x00000010   Code   RO         3425    i.USART1_GetTxCount  uart_lpc17xx.o
    0x00002474   0x00000014   Code   RO         3426    i.USART1_Initialize  uart_lpc17xx.o
    0x00002488   0x00000014   Code   RO         3427    i.USART1_PowerControl  uart_lpc17xx.o
    0x0000249c   0x00000018   Code   RO         3428    i.USART1_Receive    uart_lpc17xx.o
    0x000024b4   0x00000018   Code   RO         3429    i.USART1_Send       uart_lpc17xx.o
    0x000024cc   0x00000014   Code   RO         3430    i.USART1_SetModemControl  uart_lpc17xx.o
    0x000024e0   0x0000001c   Code   RO         3431    i.USART1_Transfer   uart_lpc17xx.o
    0x000024fc   0x00000010   Code   RO         3432    i.USART1_Uninitialize  uart_lpc17xx.o
    0x0000250c   0x00000670   Code   RO         3433    i.USART_Control     uart_lpc17xx.o
    0x00002b7c   0x00000086   Code   RO         3434    i.USART_GPDMA_Rx_Event  uart_lpc17xx.o
    0x00002c02   0x0000004a   Code   RO         3435    i.USART_GPDMA_Tx_Event  uart_lpc17xx.o
    0x00002c4c   0x00000006   Code   RO         3436    i.USART_GetCapabilities  uart_lpc17xx.o
    0x00002c52   0x000000ec   Code   RO         3437    i.USART_GetModemStatus  uart_lpc17xx.o
    0x00002d3e   0x0000001c   Code   RO         3438    i.USART_GetRxCount  uart_lpc17xx.o
    0x00002d5a   0x000000bc   Code   RO         3439    i.USART_GetStatus   uart_lpc17xx.o
    0x00002e16   0x0000001c   Code   RO         3440    i.USART_GetTxCount  uart_lpc17xx.o
    0x00002e32   0x0000026c   Code   RO         3441    i.USART_IRQHandler  uart_lpc17xx.o
    0x0000309e   0x000000fe   Code   RO         3442    i.USART_Initialize  uart_lpc17xx.o
    0x0000319c   0x0000024c   Code   RO         3443    i.USART_PowerControl  uart_lpc17xx.o
    0x000033e8   0x00000110   Code   RO         3444    i.USART_Receive     uart_lpc17xx.o
    0x000034f8   0x00000068   Code   RO         3445    i.USART_RxLineIntHandler  uart_lpc17xx.o
    0x00003560   0x0000019c   Code   RO         3446    i.USART_Send        uart_lpc17xx.o
    0x000036fc   0x00000134   Code   RO         3447    i.USART_SetBaudrate  uart_lpc17xx.o
    0x00003830   0x000000a0   Code   RO         3448    i.USART_SetModemControl  uart_lpc17xx.o
    0x000038d0   0x0000007a   Code   RO         3449    i.USART_Transfer    uart_lpc17xx.o
    0x0000394a   0x000000e2   Code   RO         3450    i.USART_Uninitialize  uart_lpc17xx.o
    0x00003a2c   0x00000010   Code   RO         3451    i.USARTx_GetVersion  uart_lpc17xx.o
    0x00003a3c   0x000000ac   Code   RO            4    i._Z10imuUpdaterPv  main.o
    0x00003ae8   0x00000040   Code   RO            5    i._Z12I2C_callbackj  main.o
    0x00003b28   0x00000230   Code   RO            6    i._Z13computeEnginePv  main.o
    0x00003d58   0x0000000e   Code   RO            7    i._Z13ledInitializev  main.o
    0x00003d66   0x00000002   PAD
    0x00003d68   0x00000030   Code   RO            9    i._Z14i2c1Initializev  main.o
    0x00003d98   0x00000026   Code   RO           10    i._Z15heartBeatThreadPv  main.o
    0x00003dbe   0x00000002   PAD
    0x00003dc0   0x00000064   Code   RO           16    i._Z9configI2Cv     main.o
    0x00003e24   0x00000030   Code   RO           17    i._Z9configPWMv     main.o
    0x00003e54   0x0000001c   Code   RO         3234    i.__NVIC_ClearPendingIRQ  i2c_lpc17xx.o
    0x00003e70   0x0000001c   Code   RO         3452    i.__NVIC_ClearPendingIRQ  uart_lpc17xx.o
    0x00003e8c   0x0000001c   Code   RO         3719    i.__NVIC_ClearPendingIRQ  gpdma_lpc17xx.o
    0x00003ea8   0x0000003c   Code   RO         3235    i.__NVIC_DisableIRQ  i2c_lpc17xx.o
    0x00003ee4   0x0000001a   Code   RO         3236    i.__NVIC_EnableIRQ  i2c_lpc17xx.o
    0x00003efe   0x00000006   Code   RO         1565    i.__get_BASEPRI     rtx_kernel.o
    0x00003f04   0x00000006   Code   RO         2045    i.__get_BASEPRI     rtx_msgqueue.o
    0x00003f0a   0x00000006   Code   RO         2350    i.__get_BASEPRI     rtx_semaphore.o
    0x00003f10   0x00000006   Code   RO         2532    i.__get_BASEPRI     rtx_thread.o
    0x00003f16   0x00000006   Code   RO         1566    i.__get_CONTROL     rtx_kernel.o
    0x00003f1c   0x00000006   Code   RO         1567    i.__get_IPSR        rtx_kernel.o
    0x00003f22   0x00000006   Code   RO         2046    i.__get_IPSR        rtx_msgqueue.o
    0x00003f28   0x00000006   Code   RO         2351    i.__get_IPSR        rtx_semaphore.o
    0x00003f2e   0x00000006   Code   RO         2533    i.__get_IPSR        rtx_thread.o
    0x00003f34   0x00000006   Code   RO         1568    i.__get_PRIMASK     rtx_kernel.o
    0x00003f3a   0x00000006   Code   RO         2047    i.__get_PRIMASK     rtx_msgqueue.o
    0x00003f40   0x00000006   Code   RO         2352    i.__get_PRIMASK     rtx_semaphore.o
    0x00003f46   0x00000006   Code   RO         2534    i.__get_PRIMASK     rtx_thread.o
    0x00003f4c   0x0000000e   Code   RO         4262    i.__scatterload_copy  mc_w.l(handlers.o)
    0x00003f5a   0x00000002   Code   RO         4263    i.__scatterload_null  mc_w.l(handlers.o)
    0x00003f5c   0x0000000e   Code   RO         4264    i.__scatterload_zeroinit  mc_w.l(handlers.o)
    0x00003f6a   0x00000090   Code   RO         2048    i.isrRtxMessageQueueGet  rtx_msgqueue.o
    0x00003ffa   0x0000009e   Code   RO         2049    i.isrRtxMessageQueuePut  rtx_msgqueue.o
    0x00004098   0x00000030   Code   RO         2473    i.isr_queue_get     rtx_system.o
    0x000040c8   0x0000003c   Code   RO         2474    i.isr_queue_put     rtx_system.o
    0x00004104   0x00000164   Code   RO           18    i.main              main.o
    0x00004268   0x00000044   Code   RO          283    i.osDelay           rtx_delay.o
    0x000042ac   0x00000058   Code   RO         1575    i.osKernelInitialize  rtx_kernel.o
    0x00004304   0x00000058   Code   RO         1579    i.osKernelStart     rtx_kernel.o
    0x0000435c   0x00000054   Code   RO         2051    i.osMessageQueueGet  rtx_msgqueue.o
    0x000043b0   0x00000074   Code   RO         2057    i.osMessageQueueNew  rtx_msgqueue.o
    0x00004424   0x00000054   Code   RO         2058    i.osMessageQueuePut  rtx_msgqueue.o
    0x00004478   0x00000020   Code   RO         3177    i.osRtxErrorNotify  rtx_config.o
    0x00004498   0x00000004   Code   RO         3178    i.osRtxIdleThread   rtx_config.o
    0x0000449c   0x0000000c   Code   RO         2535    i.osRtxKernelGetState  rtx_thread.o
    0x000044a8   0x000000a2   Code   RO         1828    i.osRtxMemoryAlloc  rtx_memory.o
    0x0000454a   0x00000066   Code   RO         1829    i.osRtxMemoryFree   rtx_memory.o
    0x000045b0   0x00000052   Code   RO         1830    i.osRtxMemoryInit   rtx_memory.o
    0x00004602   0x0000003a   Code   RO         1881    i.osRtxMemoryPoolAlloc  rtx_mempool.o
    0x0000463c   0x0000004e   Code   RO         1882    i.osRtxMemoryPoolFree  rtx_mempool.o
    0x0000468a   0x00000050   Code   RO         1883    i.osRtxMemoryPoolInit  rtx_mempool.o
    0x000046da   0x00000112   Code   RO         2060    i.osRtxMessageQueuePostProcess  rtx_msgqueue.o
    0x000047ec   0x00000054   Code   RO         2242    i.osRtxMutexOwnerRelease  rtx_mutex.o
    0x00004840   0x00000064   Code   RO         2475    i.osRtxPendSV_Handler  rtx_system.o
    0x000048a4   0x0000003c   Code   RO         2476    i.osRtxPostProcess  rtx_system.o
    0x000048e0   0x00000032   Code   RO         2353    i.osRtxSemaphorePostProcess  rtx_semaphore.o
    0x00004912   0x00000002   PAD
    0x00004914   0x00000030   Code   RO         2536    i.osRtxThreadBlock  rtx_thread.o
    0x00004944   0x00000068   Code   RO         2537    i.osRtxThreadDelayInsert  rtx_thread.o
    0x000049ac   0x00000078   Code   RO         2538    i.osRtxThreadDelayRemove  rtx_thread.o
    0x00004a24   0x000000dc   Code   RO         2539    i.osRtxThreadDelayTick  rtx_thread.o
    0x00004b00   0x0000006c   Code   RO         2540    i.osRtxThreadDispatch  rtx_thread.o
    0x00004b6c   0x00000060   Code   RO         2541    i.osRtxThreadFree   rtx_thread.o
    0x00004bcc   0x0000000c   Code   RO         2542    i.osRtxThreadGetRunning  rtx_thread.o
    0x00004bd8   0x00000018   Code   RO         2543    i.osRtxThreadListGet  rtx_thread.o
    0x00004bf0   0x0000002e   Code   RO         2544    i.osRtxThreadListPut  rtx_thread.o
    0x00004c1e   0x0000001a   Code   RO         2545    i.osRtxThreadListRemove  rtx_thread.o
    0x00004c38   0x0000000e   Code   RO         2546    i.osRtxThreadListRoot  rtx_thread.o
    0x00004c46   0x00000040   Code   RO         2549    i.osRtxThreadPostProcess  rtx_thread.o
    0x00004c86   0x00000002   PAD
    0x00004c88   0x00000018   Code   RO         2550    i.osRtxThreadReadyPut  rtx_thread.o
    0x00004ca0   0x00000008   Code   RO         2551    i.osRtxThreadRegPtr  rtx_thread.o
    0x00004ca8   0x0000000c   Code   RO         2552    i.osRtxThreadSetRunning  rtx_thread.o
    0x00004cb4   0x0000002c   Code   RO         2553    i.osRtxThreadStackCheck  rtx_thread.o
    0x00004ce0   0x0000001c   Code   RO         2554    i.osRtxThreadSwitch  rtx_thread.o
    0x00004cfc   0x00000058   Code   RO         2555    i.osRtxThreadWaitEnter  rtx_thread.o
    0x00004d54   0x00000036   Code   RO         2556    i.osRtxThreadWaitExit  rtx_thread.o
    0x00004d8a   0x00000002   PAD
    0x00004d8c   0x00000098   Code   RO         2477    i.osRtxTick_Handler  rtx_system.o
    0x00004e24   0x00000058   Code   RO         2970    i.osRtxTimerThread  rtx_timer.o
    0x00004e7c   0x0000005c   Code   RO         2971    i.osRtxTimerTick    rtx_timer.o
    0x00004ed8   0x00000090   Code   RO         2354    i.osSemaphoreAcquire  rtx_semaphore.o
    0x00004f68   0x00000074   Code   RO         2358    i.osSemaphoreNew    rtx_semaphore.o
    0x00004fdc   0x00000088   Code   RO         2359    i.osSemaphoreRelease  rtx_semaphore.o
    0x00005064   0x00000020   Code   RO         2559    i.osThreadExit      rtx_thread.o
    0x00005084   0x00000074   Code   RO         2572    i.osThreadNew       rtx_thread.o
    0x000050f8   0x00000016   Code   RO          285    i.svcRtxDelay       rtx_delay.o
    0x0000510e   0x00000002   PAD
    0x00005110   0x000002a0   Code   RO         1588    i.svcRtxKernelInitialize  rtx_kernel.o
    0x000053b0   0x000000f8   Code   RO         1592    i.svcRtxKernelStart  rtx_kernel.o
    0x000054a8   0x00000130   Code   RO         2062    i.svcRtxMessageQueueGet  rtx_msgqueue.o
    0x000055d8   0x000001a0   Code   RO         2068    i.svcRtxMessageQueueNew  rtx_msgqueue.o
    0x00005778   0x00000118   Code   RO         2069    i.svcRtxMessageQueuePut  rtx_msgqueue.o
    0x00005890   0x00000084   Code   RO         2360    i.svcRtxSemaphoreAcquire  rtx_semaphore.o
    0x00005914   0x000000d4   Code   RO         2364    i.svcRtxSemaphoreNew  rtx_semaphore.o
    0x000059e8   0x00000078   Code   RO         2365    i.svcRtxSemaphoreRelease  rtx_semaphore.o
    0x00005a60   0x00000094   Code   RO         2580    i.svcRtxThreadExit  rtx_thread.o
    0x00005af4   0x0000026c   Code   RO         2593    i.svcRtxThreadNew   rtx_thread.o
    0x00005d60   0x00000004   Data   RO           35    .constdata          main.o
    0x00005d64   0x00000064   Data   RO         1796    .constdata          rtx_lib.o
    0x00005dc8   0x00000064   Data   RO         3238    .constdata          i2c_lpc17xx.o
    0x00005e2c   0x0000027c   Data   RO         3454    .constdata          uart_lpc17xx.o
    0x000060a8   0x0000000b   Data   RO         1595    .conststrlit        rtx_kernel.o
    0x000060b3   0x00000001   PAD
    0x000060b4   0x00000068   Data   RO         1798    .rodata             rtx_lib.o
    0x0000611c   0x00000020   Data   RO         4260    Region$$Table       anon$$obj.o


    Execution Region RW_IRAM1 (Base: 0x10000000, Size: 0x00001b88, Max: 0x00008000, ABSOLUTE, COMPRESSED[0x00000048])

    Base Addr    Size         Type   Attr      Idx    E Section Name        Object

    0x10000000   0x00001040   Data   RW         1791    .bss.os             rtx_lib.o
    0x10001040   0x00000034   Data   RW         1792    .bss.os.msgqueue.cb  rtx_lib.o
    0x10001074   0x00000050   Data   RW         1793    .bss.os.msgqueue.mem  rtx_lib.o
    0x100010c4   0x00000088   Data   RW         1794    .bss.os.thread.cb   rtx_lib.o
    0x1000114c   0x00000004   PAD
    0x10001150   0x000004b0   Data   RW         1795    .bss.os.thread.stack  rtx_lib.o
    0x10001600   0x0000004c   Data   RW           36    .data               main.o
    0x1000164c   0x00000001   Data   RW         3108    .data               os_systick.o
    0x1000164d   0x00000004   Data   RW         3239    .data               i2c_lpc17xx.o
    0x10001651   0x00000008   Data   RW         3455    .data               uart_lpc17xx.o
    0x10001659   0x00000003   PAD
    0x1000165c   0x00000008   Data   RW         3721    .data               gpdma_lpc17xx.o
    0x10001664   0x00000004   Data   RW         3903    .data               system_lpc17xx.o
    0x10001668   0x000000a4   Data   RW         1596    .data.os            rtx_kernel.o
    0x1000170c   0x00000050   Zero   RW           34    .bss                main.o
    0x1000175c   0x00000024   Zero   RW         3237    .bss                i2c_lpc17xx.o
    0x10001780   0x00000068   Zero   RW         3453    .bss                uart_lpc17xx.o
    0x100017e8   0x000000a0   Zero   RW         3720    .bss                gpdma_lpc17xx.o
    0x10001888   0x00000300   Zero   RW         3888    STACK               startup_lpc17xx.o


==============================================================================

Image component sizes


      Code (inc. data)   RO Data    RW Data    ZI Data      Debug   Object Name

      1204         94          0          8        160       8074   gpdma_lpc17xx.o
        96          8          0          0          0       1202   gpio_lpc17xx.o
      2924        132        100          4         36      51932   i2c_lpc17xx.o
       136         10          0          0          0        548   irq_cm3.o
      1400        278          4         76         80      77577   main.o
       176         24          0          1          0      29135   os_systick.o
       284         10          0          0          0       1464   pin_lpc17xx.o
        36          6          0          0          0        925   rtx_config.o
        90          4          0          0          0      37388   rtx_delay.o
         0          0          0          0          0       4504   rtx_evflags.o
       108          0          0          0          0      29595   rtx_evr.o
      1120         44         11        164          0      20460   rtx_kernel.o
         0          0        204       5628          0       7988   rtx_lib.o
       346          0          0          0          0       3107   rtx_memory.o
       556          0          0          0          0       3795   rtx_mempool.o
      2382         34          0          0          0      18991   rtx_msgqueue.o
        84          0          0          0          0       1417   rtx_mutex.o
      1322         30          0          0          0      11110   rtx_semaphore.o
       760         36          0          0          0       9641   rtx_system.o
      2512        104          0          0          0      22300   rtx_thread.o
       268         30          0          0          0       2372   rtx_timer.o
        40         12        204          0        768        964   startup_lpc17xx.o
       744         34          0          4          0       1315   system_lpc17xx.o
      6144        240        636          8        104      77859   uart_lpc17xx.o

    ----------------------------------------------------------------------
     22752       1130       1192       5900       1148     423663   Object Totals
         0          0         32          0          0          0   (incl. Generated)
        20          0          1          7          0          0   (incl. Padding)

    ----------------------------------------------------------------------

      Code (inc. data)   RO Data    RW Data    ZI Data      Debug   Library Member Name

        58          0          0          0          0          0   __dczerorl.o
         0          0          0          0          0          0   entry.o
         0          0          0          0          0          0   entry10a.o
         0          0          0          0          0          0   entry11a.o
         8          4          0          0          0          0   entry2.o
         4          0          0          0          0          0   entry5.o
         0          0          0          0          0          0   entry7b.o
         0          0          0          0          0          0   entry8b.o
         8          4          0          0          0          0   entry9a.o
        30          0          0          0          0          0   handlers.o
        36          8          0          0          0         68   init.o
         0          0          0          0          0          0   iusefp.o
        30          0          0          0          0         68   llshl.o
        32          0          0          0          0         68   llushr.o
        36          0          0          0          0         68   memcpya.o
        36          0          0          0          0        108   memseta.o
        98          0          0          0          0         92   uldiv.o
       176          0          0          0          0        140   fadd.o
       124          0          0          0          0         88   fdiv.o
       110          0          0          0          0        168   fepilogue.o
        40          0          0          0          0         68   ffixui.o
        18          0          0          0          0         68   fflti.o
       100          0          0          0          0         76   fmul.o

    ----------------------------------------------------------------------
       948         16          0          0          0       1080   Library Totals
         4          0          0          0          0          0   (incl. Padding)

    ----------------------------------------------------------------------

      Code (inc. data)   RO Data    RW Data    ZI Data      Debug   Library Name

       376         16          0          0          0        472   mc_w.l
       568          0          0          0          0        608   mf_w.l

    ----------------------------------------------------------------------
       948         16          0          0          0       1080   Library Totals

    ----------------------------------------------------------------------

==============================================================================


      Code (inc. data)   RO Data    RW Data    ZI Data      Debug   

     23700       1146       1192       5900       1148     411351   Grand Totals
     23700       1146       1192         72       1148     411351   ELF Image Totals (compressed)
     23700       1146       1192         72          0          0   ROM Totals

==============================================================================

    Total RO  Size (Code + RO Data)                24892 (  24.31kB)
    Total RW  Size (RW Data + ZI Data)              7048 (   6.88kB)
    Total ROM Size (Code + RO Data + RW Data)      24964 (  24.38kB)

==============================================================================

